ccopy_reg
_reconstructor
p0
(cnltk.classify.maxent
MaxentClassifier
p1
c__builtin__
object
p2
Ntp3
Rp4
(dp5
S'_logarithmic'
p6
I01
sS'_encoding'
p7
g0
(cnltk.classify.maxent
BinaryMaxentFeatureEncoding
p8
g2
Ntp9
Rp10
(dp11
S'_length'
p12
I704
sS'_labels'
p13
(lp14
I0
aI1
asS'_unseen'
p15
NsS'_alwayson'
p16
NsS'_mapping'
p17
(dp18
(S'5_t_t-1_t-2'
p19
VVAUX,VM,JJ
p20
I0
tp21
I268
s(S'6_w_w+1'
p22
V\u092a\u0941\u0932\u093f\u0938,\u0905\u0927\u093f\u0915\u093e\u0930\u0940
p23
I0
tp24
I291
s(g19
VVM,NN,DEM
p25
I0
tp26
I607
s(S'1_w'
p27
V\u0935\u0930\u093f\u0937\u094d\u0920
p28
I0
tp29
I288
s(g27
V\u0939\u0948
p30
I0
tp31
I178
s(S'8_t_t+1_t+2'
p32
VPSP,VM,NN
p33
I0
tp34
I423
s(g27
V\u0915\u0930
p35
I0
tp36
I266
s(g22
V\u091c\u093e\u0902\u091a,\u0915\u0930
p37
I0
tp38
I439
s(g32
VJJ,NNP,PSP
p39
I0
tp40
I375
s(g19
VNEG,NN,PSP
p41
I0
tp42
I578
s(S'7_t_t+1'
p43
VNNC,NN
p44
I0
tp45
I81
s(S'2_w_w-1'
p46
V\u091c\u093f\u0932\u0947,\u0932\u0916\u0940\u0938\u0930\u093e\u092f
p47
I0
tp48
I23
s(S'4_t_t-1'
p49
VNNPC,JJ
p50
I0
tp51
I138
s(g49
VVM,NEG
p52
I0
tp53
I588
s(g19
VNNPC,NN,NNC
p54
I0
tp55
I331
s(g19
VNN,PSP,NNP
p56
I0
tp57
I357
s(g46
V\u092a\u0924\u094d\u0925\u0930,\u090f\u0915
p58
I0
tp59
I45
s(g46
V\u0917\u092f\u093e,\u0932\u093f\u092f\u093e
p60
I0
tp61
I276
s(g49
VNN,VM
p62
I0
tp63
I433
s(g27
V\u0905\u0917\u0930
p64
I0
tp65
I664
s(g27
V\u092c\u093e\u0924
p66
I0
tp67
I540
s(g46
V\u091a\u0930\u094d\u091a\u093e,\u0915\u0940
p68
I0
tp69
I545
s(g27
V\u092e\u0940\u0921\u093f\u092f\u093e
p70
I0
tp71
I522
s(g32
VQC,NN,VM
p72
I0
tp73
I42
s(g43
VNNPC,NNP
p74
I0
tp75
I137
s(g22
V\u0935\u0947,\u0915\u0902\u092a\u0928\u0940
p76
I0
tp77
I682
s(g46
V\u092a\u0941\u0932\u093f\u0938,\u0935\u0930\u093f\u0937\u094d\u0920
p78
I0
tp79
I292
s(g19
VNN,CC,VM
p80
I0
tp81
I409
s(g19
VVM,NEG,NN
p82
I0
tp83
I585
s(g19
VNEG,NN,CC
p84
I0
tp85
I669
s(g19
VPSP,NN,QC
p86
I1
tp87
I161
s(g49
VNNPC,NN
p88
I0
tp89
I334
s(g22
V\u092c\u0924\u093e\u092f\u093e,\u0915\u093f
p90
I0
tp91
I199
s(g27
V\u0915\u094b
p92
I0
tp93
I196
s(g27
V\u092a\u0930
p94
I1
tp95
I166
s(g19
VVAUX,VM,NEG
p96
I0
tp97
I676
s(g46
V\u0938\u0947,\u0906\u0908\u090f\u090f\u0928\u090f\u0938
p98
I0
tp99
I462
s(g43
VNNP,NN
p100
I0
tp101
I16
s(g22
V\u092c\u093f\u0939\u093e\u0930,\u0915\u0947
p102
I0
tp103
I2
s(g46
V\u0932\u0917\u093e,\u0906\u0930\u094b\u092a
p104
I0
tp105
I403
s(g32
VNN,PSP,QC
p106
I0
tp107
I27
s(g19
VQC,PSP,NN
p108
I0
tp109
I36
s(g22
V\u0915\u0930\u0928\u0947,\u0915\u093e
p110
I0
tp111
I561
s(g49
VNNC,JJ
p112
I0
tp113
I293
s(g32
VVM,CC,NN
p114
I0
tp115
I203
s(g19
VNN,NN,PSP
p116
I0
tp117
I364
s(g19
VNN,VM,PSP
p118
I0
tp119
I430
s(g46
V\u092d\u093e\u0930\u0940,\u0938\u0947
p120
I0
tp121
I625
s(g43
VPRP,NN
p122
I0
tp123
I684
s(g19
VVAUX,VM,PSP
p124
I0
tp125
I175
s(g49
VQC,PSP
p126
I0
tp127
I40
s(g27
V\u0915\u0947
p128
I0
tp129
I11
s(g22
V\u0935\u093f\u0927\u093e\u092f\u0915,\u0915\u0947
p130
I1
tp131
I213
s(g22
V\u092e\u0947\u0902,\u0907\u0938
p132
I0
tp133
I524
s(g22
V\u0915\u093e,\u0906\u0930\u094b\u092a
p134
I1
tp135
I104
s(g27
V\u092d\u093e\u0930\u0924\u0940\u092f
p136
I0
tp137
I131
s(S'3_t'
p138
VNNP
p139
I0
tp140
I1
s(g43
VNN,VM
p141
I0
tp142
I46
s(g49
VNNP,CC
p143
I0
tp144
I615
s(g46
V\u092d\u093e\u091c\u092a\u093e,\u092a\u0941\u0932\u093f\u0938
p145
I1
tp146
I415
s(g22
V\u0926\u0940,\u0925\u0940
p147
I0
tp148
I651
s(g46
V\u0930\u0942\u092a,\u0915\u0925\u093f\u0924
p149
I0
tp150
I392
s(g46
V\u0915\u0902\u092a\u0928\u0940,\u0928\u0947
p151
I0
tp152
I620
s(g22
V\u0939\u0941\u0908,\u0924\u094b
p153
I0
tp154
I548
s(g138
VPRP
p155
I0
tp156
I506
s(g46
V\u0906\u0930\u094b\u092a\u094b\u0902,\u0932\u0917\u0947
p157
I0
tp158
I432
s(g27
V\u0927\u0928
p159
I0
tp160
I237
s(g27
V\u0932\u093f\u092f\u093e
p161
I0
tp162
I272
s(g19
VQC,PSP,NNP
p163
I0
tp164
I150
s(g19
VPSP,VM,JJ
p165
I0
tp166
I485
s(g46
V\u0938\u0947,\u0930\u0942\u092a
p167
I0
tp168
I397
s(g19
VPSP,NN,PRP
p169
I0
tp170
I691
s(g49
VVAUX,VAUX
p171
I0
tp172
I277
s(g22
V\u092c\u0902\u0926,\u0915\u0930\u093e
p173
I0
tp174
I695
s(g43
VJJ,NNC
p175
I0
tp176
I286
s(g46
V\u0939\u0948,\u0932\u0917\u093e
p177
I0
tp178
I176
s(g27
V\u0927\u092e\u0915\u0940
p179
I0
tp180
I649
s(g27
V\u0935\u093e\u0932\u0940
p181
I0
tp182
I63
s(g19
VPSP,VM,NN
p183
I0
tp184
I58
s(g46
V\u0907\u0928\u0915\u093e\u0930,\u0938\u0947
p185
I0
tp186
I489
s(g22
V\u0938\u0947,\u092d\u093e\u0930\u0940
p187
I0
tp188
I622
s(g43
VPSP,VM
p189
I0
tp190
I195
s(g32
VVAUX,VAUX,VAUX
p191
I0
tp192
I273
s(g27
V\u0932\u0947\u0915\u093f\u0928
p193
I0
tp194
I504
s(g46
V\u0930\u0939\u0940,\u0915\u0930
p195
I0
tp196
I446
s(g46
V\u0915\u0940,\u0930\u0902\u0915\u092e
p197
I0
tp198
I631
s(g46
V\u0915\u0947,\u092c\u093f\u0939\u093e\u0930
p199
I0
tp200
I8
s(g46
V\u0938\u0947,\u0915\u0902\u092a\u0928\u0940
p201
I0
tp202
I73
s(g49
VNN,DEM
p203
I0
tp204
I539
s(g32
VPSP,PSP,NN
p205
I0
tp206
I342
s(g32
VVM,VAUX,CC
p207
I0
tp208
I637
s(g22
V\u092a\u0941\u0932\u093f\u0938,\u092a\u091f\u0947\u0932
p209
I0
tp210
I477
s(g43
VVM,PSP
p211
I0
tp212
I54
s(g19
VNNC,JJ,QC
p213
I0
tp214
I290
s(g19
VPSP,NN,PSP
p215
I1
tp216
I455
s(g46
V\u0915\u093e,\u0915\u0930\u0928\u0947
p217
I1
tp218
I564
s(g46
V\u0932\u093f\u092e\u093f\u091f\u0947\u0921,\u0915\u0902\u0938\u094d\u091f\u094d\u0930\u0915\u094d\u0936\u0928
p219
I0
tp220
I378
s(g22
V\u092a\u091f\u0947\u0932,\u0915\u0947
p221
I0
tp222
I337
s(g27
V\u092e\u093e\u0902\u0917
p223
I1
tp224
I634
s(g49
VNN,PSP
p225
I0
tp226
I68
s(g27
V\u0907\u0938
p227
I0
tp228
I534
s(g49
VNN,NNP
p229
I0
tp230
I25
s(g22
V\u0915\u093f,\u092d\u093e\u091c\u092a\u093e
p231
I0
tp232
I306
s(g19
VVAUX,VAUX,VM
p233
I0
tp234
I274
s(g22
V\u0906\u0930\u094b\u092a,\u0932\u0917\u093e
p235
I1
tp236
I401
s(g138
VNEG
p237
I0
tp238
I577
s(g19
VNN,JJ,PRP
p239
I0
tp240
I519
s(g19
VNN,CC,VAUX
p241
I0
tp242
I646
s(g138
VJJ
p243
I0
tp244
I125
s(g22
V\u091c\u092c\u0930\u094d\u0926\u0938\u094d\u0924\u0940,\u0930\u0902\u0917\u0926\u093e\u0930\u0940
p245
I0
tp246
I79
s(g43
VNNC,NN
p247
I1
tp248
I322
s(g22
V\u0930\u0942\u092a,\u0938\u0947
p249
I0
tp250
I391
s(g32
VQC,JJ,NNC
p251
I0
tp252
I283
s(g46
V\u091c\u0928\u0924\u093e,\u092d\u093e\u0930\u0924\u0940\u092f
p253
I0
tp254
I136
s(g46
V\u0915\u093f,\u0925\u0940
p255
I0
tp256
I657
s(g22
V\u092a\u093e\u0930\u094d\u091f\u0940,\u0915\u0947
p257
I0
tp258
I142
s(g138
VNNPC
p259
I0
tp260
I133
s(g19
VCC,VM,NN
p261
I0
tp262
I551
s(g22
V\u0915\u0925\u093f\u0924,\u0930\u0942\u092a
p263
I0
tp264
I385
s(g22
V\u0916\u093f\u0932\u093e\u092b,\u092e\u093e\u092e\u0932\u093e
p265
I0
tp266
I344
s(g22
V\u090f\u0915,\u0935\u0930\u093f\u0937\u094d\u0920
p267
I0
tp268
I281
s(g43
VNNP,NNC
p269
I1
tp270
I314
s(g22
V\u0932\u093f\u092f\u093e,\u0917\u092f\u093e
p271
I0
tp272
I269
s(g49
VNN,NN
p273
I0
tp274
I367
s(g46
V\u0915\u093e,\u0909\u0917\u093e\u0939\u0928\u0947
p275
I1
tp276
I247
s(g32
VNN,VM,CC
p277
I0
tp278
I547
s(g49
VDEM,PSP
p279
I0
tp280
I533
s(g19
VNN,CC,VM
p281
I1
tp282
I212
s(g46
V\u0906\u0930\u094b\u092a,\u0915\u093e
p283
I1
tp284
I112
s(g43
VVAUX,CC
p285
I0
tp286
I496
s(g46
V\u090f\u0915,\u0915\u0940
p287
I0
tp288
I38
s(g46
V\u091c\u093e\u0928\u0915\u093e\u0930\u0940,\u092f\u0939
p289
I0
tp290
I605
s(g49
VVM,NN
p291
I0
tp292
I55
s(g22
V\u0924\u094b,\u092a\u0941\u0932\u093f\u0938
p293
I0
tp294
I552
s(g27
V\u0915\u0902\u092a\u0928\u0940
p295
I0
tp296
I69
s(g46
V\u0935\u093e\u0932\u0940,\u0915\u093e\u091f\u0928\u0947
p297
I0
tp298
I60
s(g32
VVAUX,CC,NN
p299
I0
tp300
I640
s(g46
V\u0915\u0925\u093f\u0924,\u0938\u0947
p301
I0
tp302
I386
s(g32
VNNP,NNC,NN
p303
I1
tp304
I317
s(g46
V\u0915\u0930,\u0907\u0928\u0915\u093e\u0930
p305
I0
tp306
I491
s(g43
VVM,CC
p307
I0
tp308
I201
s(g27
V\u092c\u0902\u0926
p309
I0
tp310
I697
s(g19
VNNP,PSP,NN
p311
I0
tp312
I187
s(g46
V\u0925\u0940,\u0930\u0939\u0940
p313
I0
tp314
I495
s(g43
VPSP,NNP
p315
I0
tp316
I9
s(g19
VVM,NN,PSP
p317
I0
tp318
I359
s(g22
V\u0930\u0902\u091c\u0928,\u092a\u0930
p319
I0
tp320
I350
s(g46
V\u0927\u0928,\u0938\u0947
p321
I0
tp322
I398
s(g22
V\u0915\u0940,\u090f\u0915
p323
I0
tp324
I29
s(g27
V\u091c\u092c\u0930\u094d\u0926\u0938\u094d\u0924\u0940
p325
I0
tp326
I83
s(g49
VNNP,CC
p327
I1
tp328
I315
s(g22
V\u0938\u0947,\u0907\u0928\u0915\u093e\u0930
p329
I0
tp330
I486
s(g32
VNNC,NN,NNPC
p331
I1
tp332
I324
s(g27
V\u092a\u091f\u0947\u0932
p333
I0
tp334
I339
s(g46
V\u0906\u0908\u0921\u0940\u0906\u0908\u0913,\u0915\u0902\u092a\u0928\u0940
p335
I0
tp336
I366
s(g19
VJJ,NN,PSP
p337
I0
tp338
I255
s(g22
V\u091c\u093f\u0932\u0947,\u0915\u0940
p339
I0
tp340
I22
s(g27
V\u092c\u0924\u093e\u0928\u0947
p341
I0
tp342
I589
s(g32
VPSP,NN,NN
p343
I0
tp344
I360
s(g46
V\u0928\u0947,\u0905\u0927\u093f\u0915\u093e\u0930\u093f\u092f\u094b\u0902
p345
I1
tp346
I457
s(g46
V\u0915\u093f,\u0915\u0939\u093e
p347
I0
tp348
I307
s(g32
VCC,NNP,PSP
p349
I0
tp350
I611
s(g43
VQC,JJ
p351
I0
tp352
I282
s(g49
VPSP,PSP
p353
I0
tp354
I225
s(g19
VPSP,VM,JJ
p355
I1
tp356
I562
s(g32
VPSP,VM,CC
p357
I1
tp358
I301
s(g27
V\u0936\u0941\u0930\u0942\u0906\u0924
p359
I0
tp360
I473
s(g19
VPSP,VM,NN
p361
I1
tp362
I103
s(g22
V\u0927\u0928,\u0909\u0917\u093e\u0939\u0928\u0947
p363
I0
tp364
I234
s(g22
V\u0915\u094b,\u092c\u0902\u0926
p365
I0
tp366
I692
s(g27
V\u0906\u0908\u0921\u0940\u0906\u0908\u0913
p367
I0
tp368
I368
s(g19
VVAUX,VAUX,VAUX
p369
I0
tp370
I279
s(g22
V\u0938\u0947,\u0915\u0925\u093f\u0924
p371
I0
tp372
I382
s(g46
V\u092a\u0941\u0932\u093f\u0938,\u0924\u094b
p373
I0
tp374
I556
s(g49
VNNP,JJ
p375
I0
tp376
I379
s(g27
V\u0906\u0908\u090f\u090f\u0928\u090f\u0938
p377
I0
tp378
I460
s(g43
VPSP,DEM
p379
I0
tp380
I526
s(g32
VPSP,JJ,NN
p381
I0
tp382
I384
s(g22
V\u0935\u093f\u0927\u093e\u092f\u0915,\u092a\u0930
p383
I1
tp384
I155
s(g46
V\u092c\u093e\u0924,\u0907\u0938
p385
I0
tp386
I538
s(g19
VPSP,PSP,NN
p387
I0
tp388
I222
s(g22
V\u092c\u0924\u093e\u0928\u0947,\u0915\u0940
p389
I0
tp390
I586
s(g43
VNNP,PSP
p391
I0
tp392
I3
s(g43
VPSP,PSP
p393
I0
tp394
I220
s(g43
VNN,JJ
p395
I0
tp396
I252
s(g19
VPSP,NN,PSP
p397
I0
tp398
I71
s(g46
V\u092c\u0924\u093e\u092f\u093e,\u0915\u094b
p399
I0
tp400
I200
s(g46
V\u0928\u0947,\u092a\u0941\u0932\u093f\u0938
p401
I1
tp402
I183
s(g32
VNN,PSP,NN
p403
I0
tp404
I244
s(g46
V\u0939\u0948,\u0930\u0939\u0940
p405
I0
tp406
I448
s(g49
VNN,NNP
p407
I1
tp408
I420
s(g46
V\u092a\u0941\u0932\u093f\u0938,\u092e\u0947\u0902
p409
I0
tp410
I478
s(g22
V\u092a\u0941\u0932\u093f\u0938,\u092d\u093e\u091c\u092a\u093e
p411
I0
tp412
I410
s(g22
V\u0928\u0939\u0940\u0902,\u0926\u093f\u092f\u093e
p413
I0
tp414
I670
s(g46
V\u0932\u0917\u093e,\u092a\u0930
p415
I0
tp416
I170
s(g46
V\u0936\u0930\u094d\u0924,\u0915\u0940
p417
I0
tp418
I594
s(g46
V\u092a\u094d\u0930\u0947\u092e,\u0935\u093f\u0927\u093e\u092f\u0915
p419
I0
tp420
I327
s(g49
VCC,VM
p421
I0
tp422
I209
s(g27
V\u0926\u092c\u093e\u0935
p423
I0
tp424
I567
s(g19
VNN,PSP,NN
p425
I0
tp426
I249
s(g32
VVAUX,CC,PRP
p427
I0
tp428
I498
s(g43
VCC,NNP
p429
I0
tp430
I308
s(g32
VNNP,PSP,JJ
p431
I0
tp432
I120
s(g46
V\u091c\u093e\u0902\u091a,\u0915\u0940
p433
I0
tp434
I440
s(g46
V\u092a\u091f\u0947\u0932,\u092a\u0941\u0932\u093f\u0938
p435
I0
tp436
I479
s(g32
VNN,PSP,NNP
p437
I0
tp438
I181
s(g27
V\u0938\u0947
p439
I0
tp440
I75
s(g46
V\u0915\u0902\u092a\u0928\u0940,\u0935\u0947
p441
I0
tp442
I689
s(g19
VVAUX,VM,NN
p443
I0
tp444
I404
s(g46
V\u091c\u092c,\u0932\u0947\u0915\u093f\u0928
p445
I0
tp446
I509
s(g22
V\u0928\u0947,\u0915\u0939\u093e
p447
I1
tp448
I299
s(g19
VPSP,NNP,CC
p449
I1
tp450
I616
s(g32
VNNP,NN,PSP
p451
I1
tp452
I418
s(g43
VNN,NNP
p453
I1
tp454
I113
s(g27
V\u092e\u093e\u0902\u0917\u0928\u0947
p455
I1
tp456
I100
s(g49
VNEG,NN
p457
I0
tp458
I582
s(g22
V\u0932\u0916\u0940\u0938\u0930\u093e\u092f,\u091c\u093f\u0932\u0947
p459
I0
tp460
I14
s(g43
VNN,NN
p461
I0
tp462
I362
s(g22
V\u0926\u0930\u094d\u091c,\u0915\u0930
p463
I0
tp464
I256
s(g32
VVM,PSP,NN
p465
I1
tp466
I101
s(g32
VNNP,PSP,PSP
p467
I0
tp468
I340
s(g22
V\u0938\u0947,\u0927\u0928
p469
I0
tp470
I396
s(g27
V\u0915\u093e\u091f\u0928\u0947
p471
I0
tp472
I56
s(g27
V\u092c\u0928\u093e
p473
I0
tp474
I569
s(g22
V\u0930\u0902\u091c\u0928,\u092a\u091f\u0947\u0932
p475
I0
tp476
I332
s(g49
VVM,NN
p477
I1
tp478
I99
s(g46
V\u0938\u0947,\u0932\u093f\u092e\u093f\u091f\u0947\u0921
p479
I0
tp480
I383
s(g22
V\u092e\u093e\u0902\u0917,\u0915\u0940
p481
I1
tp482
I632
s(g46
V\u0915\u0940,\u091c\u093f\u0932\u0947
p483
I0
tp484
I30
s(g22
V\u0925\u0940,\u0914\u0930
p485
I0
tp486
I638
s(g19
VNN,NNC,JJ
p487
I0
tp488
I294
s(g138
VVAUX
p489
I0
tp490
I174
s(g46
V\u0930\u0902\u091c\u0928,\u092a\u094d\u0930\u0947\u092e
p491
I0
tp492
I333
s(g22
V\u0930\u0939\u0940,\u0939\u0948
p493
I0
tp494
I445
s(g27
V\u0915\u0940
p495
I0
tp496
I33
s(g46
V\u0930\u0902\u0917\u0926\u093e\u0930\u0940,\u091c\u092c\u0930\u094d\u0926\u0938\u094d\u0924\u0940
p497
I1
tp498
I89
s(g32
VPSP,DEM,NN
p499
I0
tp500
I527
s(g49
VNN,PRP
p501
I0
tp502
I690
s(g46
V\u092e\u093e\u092e\u0932\u093e,\u092a\u0930
p503
I0
tp504
I560
s(g32
VNEG,VM,VAUX
p505
I0
tp506
I672
s(g43
VVM,NN
p507
I0
tp508
I427
s(g27
V\u0928\u093e\u092e
p509
I0
tp510
I575
s(g46
V\u092e\u0940\u0921\u093f\u092f\u093e,\u0938\u094d\u0925\u093e\u0928\u0940\u092f
p511
I0
tp512
I521
s(g22
V\u0915\u0947,\u0905\u0927\u093f\u0915\u093e\u0930\u093f\u092f\u094b\u0902
p513
I0
tp514
I450
s(g22
V\u0915\u0930\u093e,\u0926\u0947\u0902\u0917\u0947
p515
I0
tp516
I699
s(g32
VNN,NNPC,NNP
p517
I0
tp518
I330
s(g32
VPSP,JJ,NNPC
p519
I0
tp520
I124
s(g32
VPSP,NN,VM
p521
I1
tp522
I356
s(g49
VJJ,NN
p523
I0
tp524
I259
s(g46
V\u0928\u093e\u092e,\u0928\u0947
p525
I0
tp526
I573
s(g27
V\u0924\u094b
p527
I0
tp528
I554
s(g27
V\u0915\u0930\u0928\u0947
p529
I0
tp530
I484
s(g22
V\u0928\u0939\u0940\u0902,\u092c\u0924\u093e\u0928\u0947
p531
I0
tp532
I579
s(g32
VQC,NN,PSP
p533
I0
tp534
I153
s(g19
VPSP,NNP,JJ
p535
I0
tp536
I381
s(g46
V\u0915\u0947,\u0935\u093f\u0927\u093e\u092f\u0915
p537
I0
tp538
I219
s(g43
VJJ,NN
p539
I0
tp540
I387
s(g46
V\u092e\u0947\u0902,\u092c\u093e\u0924\u091a\u0940\u0924
p541
I0
tp542
I467
s(g46
V\u091c\u092c\u0930\u094d\u0926\u0938\u094d\u0924\u0940,\u0938\u0947
p543
I0
tp544
I80
s(g19
VNN,NNC,PSP
p545
I1
tp546
I87
s(g19
VPSP,NN,JJ
p547
I0
tp548
I395
s(g46
V\u0928\u0939\u0940\u0902,\u0928\u093e\u092e
p549
I0
tp550
I580
s(g49
VPSP,VM
p551
I0
tp552
I62
s(g27
V\u0935\u093f\u0927\u093e\u092f\u0915
p553
I1
tp554
I159
s(g32
VPSP,VM,CC
p555
I0
tp556
I197
s(g19
VJJ,PSP,NNP
p557
I0
tp558
I126
s(g46
V\u0925\u0940,\u0915\u0940
p559
I0
tp560
I639
s(g46
V\u0936\u0941\u0930\u0942\u0906\u0924,\u0915\u093f
p561
I0
tp562
I472
s(g27
V\u0932\u0917\u0947
p563
I0
tp564
I428
s(g27
V\u092d\u093e\u0930\u0940
p565
I0
tp566
I626
s(g27
V\u0932\u0916\u0940\u0938\u0930\u093e\u092f
p567
I0
tp568
I18
s(g32
VNNP,PSP,QC
p569
I0
tp570
I146
s(g22
V\u0915\u094b,\u092c\u0924\u093e\u092f\u093e
p571
I0
tp572
I193
s(g19
VPRP,CC,VAUX
p573
I0
tp574
I507
s(g27
V\u0935\u0947
p575
I0
tp576
I685
s(g19
VPSP,VM,NEG
p577
I0
tp578
I590
s(g32
VPSP,NNP,PSP
p579
I1
tp580
I186
s(g43
VNN,NNPC
p581
I0
tp582
I328
s(g49
VNN,QC
p583
I1
tp584
I158
s(g46
V\u092c\u0924\u093e\u092f\u093e,\u0928\u0947
p585
I0
tp586
I406
s(g27
V\u0907\u0928\u0915\u093e\u0930
p587
I0
tp588
I490
s(g19
VNNP,NN,CC
p589
I1
tp590
I414
s(g46
V\u091c\u092c\u0930\u094d\u0926\u0938\u094d\u0924\u0940,\u0916\u093f\u0932\u093e\u092b
p591
I0
tp592
I230
s(g27
V\u0928\u0947
p593
I1
tp594
I185
s(g19
VNN,DEM,PSP
p595
I0
tp596
I536
s(g22
V\u0915\u0930,\u0932\u093f\u092f\u093e
p597
I0
tp598
I263
s(g46
V\u0915\u0940,\u092e\u093e\u0902\u0917
p599
I0
tp600
I636
s(g49
VNN,NNC
p601
I1
tp602
I91
s(g32
VNNC,NN,PSP
p603
I0
tp604
I238
s(g46
V\u0915\u0940,\u092c\u093e\u0924
p605
I0
tp606
I543
s(g19
VNNP,CC,VM
p607
I0
tp608
I612
s(g32
VNNC,NN,VM
p609
I0
tp610
I84
s(g43
VVM,PSP
p611
I1
tp612
I98
s(g32
VCC,PRP,NN
p613
I0
tp614
I681
s(g43
VQC,NN
p615
I0
tp616
I39
s(g27
V\u092a\u094d\u0930\u0947\u092e
p617
I0
tp618
I329
s(g32
VVM,NN,PSP
p619
I0
tp620
I429
s(g27
V\u0926\u093f\u092f\u093e
p621
I0
tp622
I675
s(g43
VVAUX,VAUX
p623
I0
tp624
I271
s(g46
V\u092a\u091f\u0947\u0932,\u0915\u093f
p625
I0
tp626
I614
s(g32
VPSP,PSP,VM
p627
I0
tp628
I421
s(g32
VNNP,NN,PSP
p629
I0
tp630
I19
s(g49
VNN,CC
p631
I1
tp632
I215
s(g43
VNN,NNP
p633
I0
tp634
I348
s(g22
V\u091c\u093e\u0928\u0915\u093e\u0930\u0940,\u0926\u0940
p635
I0
tp636
I604
s(g46
V\u0939\u0941\u0908,\u091a\u0930\u094d\u091a\u093e
p637
I0
tp638
I549
s(g22
V\u0926\u093f\u092f\u093e,\u0917\u092f\u093e
p639
I0
tp640
I673
s(g27
V\u0915\u093f
p641
I0
tp642
I210
s(g27
V\u092c\u093f\u0939\u093e\u0930
p643
I0
tp644
I4
s(g43
VPSP,NNP
p645
I1
tp646
I184
s(g32
VVM,PSP,NN
p647
I0
tp648
I57
s(g46
V\u0915\u093f,\u092c\u0924\u093e\u092f\u093e
p649
I0
tp650
I207
s(g32
VPSP,DEM,NN
p651
I1
tp652
I599
s(g22
V\u0925\u0940,\u0915\u093f
p653
I0
tp654
I653
s(g46
V\u0926\u0947\u0902\u0917\u0947,\u0915\u0930\u093e
p655
I0
tp656
I702
s(g32
VNN,PSP,PSP
p657
I1
tp658
I216
s(g46
V\u0927\u0928,\u091c\u092c\u0930\u094d\u0926\u0938\u094d\u0924\u0940
p659
I0
tp660
I235
s(g43
VPSP,JJ
p661
I0
tp662
I123
s(g46
V\u092f\u0939,\u092a\u0930
p663
I0
tp664
I601
s(g22
V\u0915\u0902\u092a\u0928\u0940,\u0906\u0908\u0921\u0940\u0906\u0908\u0913
p665
I0
tp666
I361
s(g49
VPSP,NNP
p667
I1
tp668
I355
s(g32
VPSP,QC,NN
p669
I0
tp670
I34
s(g43
VNN,NEG
p671
I0
tp672
I574
s(g46
V\u0915\u0947,\u092a\u093e\u0930\u094d\u091f\u0940
p673
I0
tp674
I149
s(g32
VPSP,NN,PSP
p675
I0
tp676
I64
s(g46
V\u092e\u093e\u092e\u0932\u093e,\u0915\u093e
p677
I0
tp678
I251
s(g22
V\u0917\u092f\u093e,\u0924\u094b
p679
I0
tp680
I677
s(g27
V\u0939\u0941\u0908
p681
I0
tp682
I550
s(g46
V\u0926\u093f\u092f\u093e,\u0928\u0939\u0940\u0902
p683
I0
tp684
I674
s(g22
V\u092a\u0930,\u0932\u0917\u093e
p685
I1
tp686
I162
s(g22
V\u0915\u093e,\u092e\u093e\u092e\u0932\u093e
p687
I1
tp688
I246
s(S'tfidf'
p689
I0
I1
tp690
I85
s(g43
VVM,VAUX
p691
I0
tp692
I171
s(g46
V\u092a\u0930,\u0930\u0902\u091c\u0928
p693
I1
tp694
I354
s(g27
V\u0926\u0930\u094d\u091c
p695
I0
tp696
I260
s(g32
VPSP,NN,VM
p697
I0
tp698
I438
s(g32
VJJ,NNPC,NNP
p699
I0
tp700
I132
s(g43
VPSP,QC
p701
I0
tp702
I31
s(g27
V\u092f\u0939
p703
I0
tp704
I602
s(g46
V\u0936\u0941\u0915\u094d\u0930\u0935\u093e\u0930,\u0928\u0947
p705
I0
tp706
I189
s(g49
VNNC,NNC
p707
I0
tp708
I236
s(g32
VJJ,VM,PSP
p709
I0
tp710
I481
s(g19
VNNP,NNPC,NN
p711
I0
tp712
I336
s(g46
V\u0915\u0930\u0928\u0947,\u0926\u0930\u094d\u091c
p713
I0
tp714
I483
s(g22
V\u0915\u0940,\u092e\u093e\u0902\u0917
p715
I0
tp716
I630
s(g22
V\u091c\u092c,\u0938\u094d\u0925\u093e\u0928\u0940\u092f
p717
I0
tp718
I508
s(g32
VPSP,NN,NNP
p719
I1
tp720
I109
s(g43
VJJ,VM
p721
I0
tp722
I258
s(g22
V\u0938\u0947,\u092c\u093e\u0924\u091a\u0940\u0924
p723
I0
tp724
I461
s(g49
VPSP,VM
p725
I1
tp726
I107
s(g46
V\u0909\u0917\u093e\u0939\u0928\u0947,\u0927\u0928
p727
I0
tp728
I241
s(g22
V\u0924\u094b,\u0935\u0947
p729
I0
tp730
I679
s(g46
V\u0915\u0902\u092a\u0928\u0940,\u0935\u093e\u0932\u0940
p731
I0
tp732
I67
s(g43
VJJ,NNP
p733
I0
tp734
I373
s(g22
V\u0906\u0930\u094b\u092a,\u092c\u093f\u0939\u093e\u0930
p735
I1
tp736
I111
s(g22
V\u092a\u0930,\u092a\u0924\u094d\u0925\u0930
p737
I1
tp738
I353
s(g19
VNNP,NN,PSP
p739
I0
tp740
I117
s(g22
V\u092a\u094d\u0930\u0947\u092e,\u0930\u0902\u091c\u0928
p741
I0
tp742
I326
s(g27
V\u0932\u0917\u093e
p743
I0
tp744
I173
s(g46
V\u0926\u0940,\u091c\u093e\u0928\u0915\u093e\u0930\u0940
p745
I0
tp746
I608
s(g32
VNN,NEG,VM
p747
I0
tp748
I576
s(g32
VCC,CC,NN
p749
I0
tp750
I659
s(g19
VCC,VAUX,VM
p751
I0
tp752
I641
s(g43
VCC,NN
p753
I0
tp754
I208
s(g19
VNN,PSP,NN
p755
I1
tp756
I400
s(g22
V\u092a\u0924\u094d\u0925\u0930,\u0915\u093e\u091f\u0928\u0947
p757
I0
tp758
I44
s(g27
V\u0930\u0939\u0940
p759
I0
tp760
I447
s(g22
V\u092e\u093e\u0902\u0917\u0928\u0947,\u0915\u093e
p761
I1
tp762
I96
s(g49
VNN,QC
p763
I0
tp764
I47
s(g22
V\u0928\u093e\u092e,\u0928\u0939\u0940\u0902
p765
I0
tp766
I572
s(g22
V\u0915\u093e\u091f\u0928\u0947,\u0935\u093e\u0932\u0940
p767
I0
tp768
I52
s(g22
V\u092e\u0940\u0921\u093f\u092f\u093e,\u092e\u0947\u0902
p769
I0
tp770
I520
s(g46
V\u0916\u093f\u0932\u093e\u092b,\u0915\u0947
p771
I0
tp772
I224
s(g22
V\u0927\u0928,\u0928\u0939\u0940\u0902
p773
I0
tp774
I667
s(g22
V\u092c\u093e\u0924\u091a\u0940\u0924,\u092e\u0947\u0902
p775
I0
tp776
I463
s(g27
V\u0909\u0917\u093e\u0939\u0928\u0947
p777
I0
tp778
I243
s(g22
V\u0928\u0947,\u0936\u0941\u0915\u094d\u0930\u0935\u093e\u0930
p779
I1
tp780
I182
s(g27
V\u0926\u0947\u0902\u0917\u0947
p781
I0
tp782
I703
s(g49
VNN,NNC
p783
I0
tp784
I242
s(g138
VPSP
p785
I0
tp786
I6
s(g22
V\u092a\u0941\u0932\u093f\u0938,\u0928\u0947
p787
I0
tp788
I179
s(g46
V\u0926\u0940,\u0927\u092e\u0915\u0940
p789
I0
tp790
I652
s(g22
V\u0905\u0917\u0930,\u0927\u0928
p791
I0
tp792
I661
s(g22
V\u0932\u0947\u0915\u093f\u0928,\u091c\u092c
p793
I0
tp794
I500
s(g49
VPRP,CC
p795
I0
tp796
I511
s(g22
V\u0915\u0947,\u0932\u0916\u0940\u0938\u0930\u093e\u092f
p797
I0
tp798
I7
s(g27
V\u092e\u093e\u092e\u0932\u093e
p799
I0
tp800
I253
s(g22
V\u0938\u0947,\u091c\u092c\u0930\u094d\u0926\u0938\u094d\u0924\u0940
p801
I0
tp802
I72
s(g19
VPSP,PSP,NNP
p803
I0
tp804
I343
s(g27
V\u091a\u0930\u094d\u091a\u093e
p805
I0
tp806
I546
s(g22
V\u0928\u0947,\u0928\u093e\u092e
p807
I1
tp808
I570
s(g32
VJJ,NNC,NN
p809
I0
tp810
I289
s(g32
VNN,PSP,JJ
p811
I0
tp812
I621
s(g19
VPSP,NN,CC
p813
I1
tp814
I557
s(g27
V\u091c\u093e\u0928\u0915\u093e\u0930\u0940
p815
I0
tp816
I606
s(g32
VNNPC,NNP,PSP
p817
I0
tp818
I140
s(g32
VJJ,VM,VAUX
p819
I0
tp820
I261
s(g43
VCC,PRP
p821
I0
tp822
I502
s(g22
V\u0932\u093f\u092e\u093f\u091f\u0947\u0921,\u0938\u0947
p823
I0
tp824
I377
s(g27
V\u0905\u0927\u093f\u0915\u093e\u0930\u093f\u092f\u094b\u0902
p825
I0
tp826
I454
s(g138
VDEM
p827
I0
tp828
I528
s(g49
VNN,CC
p829
I0
tp830
I412
s(g22
V\u092e\u093e\u092e\u0932\u093e,\u0926\u0930\u094d\u091c
p831
I0
tp832
I250
s(g22
V\u0915\u0930\u0928\u0947,\u0938\u0947
p833
I0
tp834
I482
s(g32
VPSP,NN,JJ
p835
I0
tp836
I345
s(g32
VNN,NNP,PSP
p837
I1
tp838
I116
s(g46
V\u0935\u0930\u093f\u0937\u094d\u0920,\u090f\u0915
p839
I0
tp840
I285
s(g22
V\u0932\u0917\u093e,\u0939\u0948
p841
I0
tp842
I169
s(g32
VPSP,NNC,NN
p843
I0
tp844
I76
s(g49
VNNP,PSP
p845
I0
tp846
I17
s(g27
V\u0932\u093f\u092e\u093f\u091f\u0947\u0921
p847
I0
tp848
I380
s(g19
VNN,PSP,PSP
p849
I0
tp850
I346
s(g22
V\u0915\u093f,\u0935\u093f\u0927\u093e\u092f\u0915
p851
I0
tp852
I206
s(g46
V\u0915\u0939\u093e,\u0928\u0947
p853
I0
tp854
I303
s(g22
V\u0915\u0940,\u091c\u093e\u0902\u091a
p855
I0
tp856
I436
s(g46
V\u092a\u0930,\u0935\u093f\u0927\u093e\u092f\u0915
p857
I1
tp858
I163
s(g27
V\u0916\u093f\u0932\u093e\u092b
p859
I0
tp860
I226
s(g22
V\u0914\u0930,\u0927\u092e\u0915\u0940
p861
I0
tp862
I642
s(g32
VPSP,NN,NEG
p863
I1
tp864
I571
s(g32
VPSP,NN,PSP
p865
I1
tp866
I619
s(g49
VJJ,PRP
p867
I0
tp868
I517
s(g32
VNN,JJ,NNP
p869
I0
tp870
I369
s(g46
V\u0915\u0940,\u092c\u0924\u093e\u0928\u0947
p871
I0
tp872
I592
s(g19
VDEM,PSP,NN
p873
I0
tp874
I529
s(g22
V\u0926\u0930\u094d\u091c,\u0915\u0930\u0928\u0947
p875
I0
tp876
I480
s(g689
I0
I0
tp877
I0
s(g32
VVAUX,CC,CC
p878
I0
tp879
I655
s(g46
V\u0905\u0917\u0930,\u0915\u093f
p880
I0
tp881
I662
s(g27
V\u0928\u0939\u0940\u0902
p882
I0
tp883
I583
s(g22
V\u0915\u0940,\u0925\u0940
p884
I0
tp885
I635
s(g46
V\u092c\u0924\u093e\u0928\u0947,\u0928\u0939\u0940\u0902
p886
I0
tp887
I587
s(g32
VNNC,NNC,NN
p888
I0
tp889
I232
s(g27
V\u0925\u0940
p890
I0
tp891
I497
s(g19
VJJ,NN,NN
p892
I0
tp893
I370
s(g27
V\u0926\u0940
p894
I0
tp895
I609
s(g32
VDEM,NN,PSP
p896
I0
tp897
I535
s(g22
V\u0915\u093e,\u0926\u092c\u093e\u0935
p898
I1
tp899
I563
s(g32
VCC,NN,NNP
p900
I0
tp901
I408
s(g49
VNN,JJ
p902
I0
tp903
I393
s(g27
V\u092c\u0924\u093e\u092f\u093e
p904
I0
tp905
I202
s(g46
V\u0924\u094b,\u0917\u092f\u093e
p906
I0
tp907
I680
s(g22
V\u0915\u093f,\u092a\u091f\u0947\u0932
p908
I0
tp909
I610
s(g32
VPSP,NN,NNP
p910
I0
tp911
I476
s(g46
V\u090f\u0915,\u0915\u0947
p912
I0
tp913
I152
s(g32
VNNP,PSP,NN
p914
I0
tp915
I351
s(g46
V\u0938\u0947,\u0915\u0930\u0928\u0947
p916
I0
tp917
I487
s(g22
V\u0935\u093f\u0927\u093e\u092f\u0915,\u092a\u094d\u0930\u0947\u092e
p918
I1
tp919
I320
s(g27
V\u0906\u0930\u094b\u092a\u094b\u0902
p920
I0
tp921
I434
s(g22
V\u092e\u0947\u0902,\u0915\u0939\u093e
p922
I0
tp923
I466
s(g22
V\u091c\u0928\u0924\u093e,\u092a\u093e\u0930\u094d\u091f\u0940
p924
I0
tp925
I135
s(g22
V\u0909\u0917\u093e\u0939\u0928\u0947,\u0915\u093e
p926
I0
tp927
I240
s(g46
V\u092a\u0930,\u092a\u0941\u0932\u093f\u0938
p928
I1
tp929
I559
s(g49
VNNP,NN
p930
I1
tp931
I417
s(g32
VNN,NN,JJ
p932
I0
tp933
I363
s(g27
V\u0930\u0942\u092a
p934
I0
tp935
I394
s(g19
VVM,PSP,NN
p936
I0
tp937
I168
s(g27
V\u0915\u0930\u093e
p938
I0
tp939
I701
s(g27
V\u0936\u0941\u0915\u094d\u0930\u0935\u093e\u0930
p940
I0
tp941
I190
s(g138
VNNC
p942
I0
tp943
I77
s(g46
V\u0935\u093f\u0927\u093e\u092f\u0915,\u090f\u0915
p944
I1
tp945
I156
s(g22
V\u092c\u093e\u0924,\u0915\u0940
p946
I0
tp947
I537
s(g49
VVM,PSP
p948
I0
tp949
I172
s(g32
VPSP,NNC,NNC
p950
I0
tp951
I227
s(g27
V\u0915\u093e
p952
I1
tp953
I108
s(g32
VJJ,NN,PSP
p954
I0
tp955
I389
s(g49
VNNP,NNPC
p956
I0
tp957
I144
s(g46
V\u092d\u093e\u091c\u092a\u093e,\u0915\u093f
p958
I1
tp959
I313
s(g32
VNN,VM,VAUX
p960
I1
tp961
I402
s(g22
V\u0915\u093f,\u0905\u0917\u0930
p962
I0
tp963
I656
s(g46
V\u0905\u0927\u093f\u0915\u093e\u0930\u0940,\u092a\u0941\u0932\u093f\u0938
p964
I0
tp965
I296
s(g46
V\u0915\u093e,\u092e\u093e\u0902\u0917\u0928\u0947
p966
I1
tp967
I105
s(g43
VPSP,DEM
p968
I1
tp969
I598
s(g46
V\u0915\u0947,\u092a\u091f\u0947\u0932
p970
I0
tp971
I341
s(g46
V\u0917\u092f\u093e,\u0926\u093f\u092f\u093e
p972
I0
tp973
I678
s(g19
VNN,CC,CC
p974
I0
tp975
I666
s(g138
VPSP
p976
I1
tp977
I102
s(g46
V\u0915\u0930,\u091c\u093e\u0902\u091a
p978
I0
tp979
I444
s(g46
V\u0927\u092e\u0915\u0940,\u0914\u0930
p980
I0
tp981
I648
s(g32
VNN,NNP,NN
p982
I0
tp983
I413
s(g19
VNN,NNC,NNC
p984
I0
tp985
I239
s(g32
VVM,VAUX,VAUX
p986
I0
tp987
I267
s(g46
V\u0906\u0908\u090f\u090f\u0928\u090f\u0938,\u0928\u0947
p988
I0
tp989
I459
s(g22
V\u0916\u093f\u0932\u093e\u092b,\u091c\u092c\u0930\u094d\u0926\u0938\u094d\u0924\u0940
p990
I0
tp991
I223
s(g19
VNN,NNC,PSP
p992
I0
tp993
I399
s(g32
VCC,NNP,NNC
p994
I0
tp995
I309
s(g32
VPSP,PSP,NNC
p996
I0
tp997
I221
s(g43
VPSP,NN
p998
I0
tp999
I61
s(g19
VPSP,NN,CC
p1000
I0
tp1001
I217
s(g46
V\u0935\u093f\u0927\u093e\u092f\u0915,\u092d\u093e\u091c\u092a\u093e
p1002
I1
tp1003
I321
s(g27
V\u090f\u0915
p1004
I0
tp1005
I41
s(g22
V\u092d\u093e\u0930\u0940,\u0930\u0902\u0915\u092e
p1006
I0
tp1007
I624
s(g49
VPSP,NNP
p1008
I0
tp1009
I10
s(g46
V\u0924\u094b,\u0939\u0941\u0908
p1010
I0
tp1011
I553
s(g46
V\u0926\u092c\u093e\u0935,\u0915\u093e
p1012
I0
tp1013
I566
s(g32
VPSP,NN,JJ
p1014
I1
tp1015
I248
s(g32
VPSP,VM,VAUX
p1016
I1
tp1017
I167
s(g32
VNN,NNP,PSP
p1018
I0
tp1019
I349
s(g46
V\u0935\u0947,\u0924\u094b
p1020
I0
tp1021
I683
s(g49
VCC,CC
p1022
I0
tp1023
I663
s(g19
VJJ,PRP,CC
p1024
I0
tp1025
I514
s(g46
V\u0932\u0947\u0915\u093f\u0928,\u0925\u0940
p1026
I0
tp1027
I501
s(g22
V\u0907\u0938,\u092c\u093e\u0924
p1028
I0
tp1029
I530
s(g138
VNN
p1030
I0
tp1031
I20
s(g138
VCC
p1032
I0
tp1033
I204
s(g49
VNNC,PSP
p1034
I0
tp1035
I82
s(g49
VCC,VAUX
p1036
I0
tp1037
I503
s(g46
V\u0927\u0928,\u0905\u0917\u0930
p1038
I0
tp1039
I668
s(g19
VPSP,NN,NNP
p1040
I0
tp1041
I28
s(g46
V\u092e\u0947\u0902,\u092e\u0940\u0921\u093f\u092f\u093e
p1042
I0
tp1043
I525
s(g32
VNN,PSP,VM
p1044
I1
tp1045
I160
s(g22
V\u092d\u093e\u091c\u092a\u093e,\u0935\u093f\u0927\u093e\u092f\u0915
p1046
I1
tp1047
I312
s(g46
V\u0932\u0917\u0947,\u0916\u093f\u0932\u093e\u092b
p1048
I0
tp1049
I426
s(g19
VNNPC,JJ,PSP
p1050
I0
tp1051
I134
s(g27
V\u0906\u0930\u094b\u092a
p1052
I1
tp1053
I115
s(g27
V\u092a\u0924\u094d\u0925\u0930
p1054
I0
tp1055
I48
s(g22
V\u0935\u0930\u093f\u0937\u094d\u0920,\u092a\u0941\u0932\u093f\u0938
p1056
I0
tp1057
I284
s(g19
VPSP,NNP,NNPC
p1058
I0
tp1059
I147
s(g27
V\u0915\u0925\u093f\u0924
p1060
I0
tp1061
I388
s(g138
VVM
p1062
I1
tp1063
I94
s(g22
V\u0915\u0947,\u092d\u093e\u0930\u0924\u0940\u092f
p1064
I0
tp1065
I122
s(g19
VNNC,NNP,CC
p1066
I1
tp1067
I319
s(g22
V\u092a\u0930,\u092e\u093e\u092e\u0932\u093e
p1068
I1
tp1069
I558
s(g19
VCC,CC,VAUX
p1070
I0
tp1071
I660
s(g22
V\u0928\u0947,\u092c\u0924\u093e\u092f\u093e
p1072
I1
tp1073
I405
s(g22
V\u090f\u0915,\u092a\u0924\u094d\u0925\u0930
p1074
I0
tp1075
I37
s(g32
VCC,PRP,JJ
p1076
I0
tp1077
I505
s(g49
VNNC,NNP
p1078
I1
tp1079
I323
s(g19
VNN,PRP,CC
p1080
I0
tp1081
I687
s(g46
V\u092a\u093e\u0930\u094d\u091f\u0940,\u091c\u0928\u0924\u093e
p1082
I0
tp1083
I143
s(g22
V\u091a\u0930\u094d\u091a\u093e,\u0939\u0941\u0908
p1084
I0
tp1085
I544
s(g43
VJJ,NNPC
p1086
I0
tp1087
I129
s(g46
V\u092e\u0947\u0902,\u0936\u0941\u0930\u0942\u0906\u0924
p1088
I0
tp1089
I475
s(g46
V\u0915\u0947,\u0915\u0902\u092a\u0928\u0940
p1090
I0
tp1091
I451
s(g46
V\u092d\u093e\u0930\u0924\u0940\u092f,\u0915\u0947
p1092
I0
tp1093
I128
s(g46
V\u0928\u0947,\u0905\u0927\u093f\u0915\u093e\u0930\u0940
p1094
I1
tp1095
I300
s(g32
VVAUX,VAUX,CC
p1096
I0
tp1097
I493
s(g46
V\u092c\u093e\u0924\u091a\u0940\u0924,\u0938\u0947
p1098
I0
tp1099
I464
s(g46
V\u0938\u094d\u0925\u093e\u0928\u0940\u092f,\u091c\u092c
p1100
I0
tp1101
I516
s(g22
V\u092a\u091f\u0947\u0932,\u0928\u0947
p1102
I0
tp1103
I613
s(g19
VPSP,NN,VM
p1104
I0
tp1105
I435
s(g22
V\u090f\u0915,\u0935\u093f\u0927\u093e\u092f\u0915
p1106
I0
tp1107
I151
s(g22
V\u0928\u0947,\u0906\u0908\u090f\u090f\u0928\u090f\u0938
p1108
I1
tp1109
I456
s(g49
VPSP,NN
p1110
I1
tp1111
I165
s(g138
VNNC
p1112
I1
tp1113
I318
s(g46
V\u0915\u0939\u093e,\u092e\u0947\u0902
p1114
I0
tp1115
I469
s(g49
VVM,JJ
p1116
I0
tp1117
I265
s(g49
VJJ,PSP
p1118
I0
tp1119
I130
s(g19
VNNC,NNC,PSP
p1120
I0
tp1121
I233
s(g32
VNN,VM,VAUX
p1122
I0
tp1123
I442
s(g43
VNN,PSP
p1124
I0
tp1125
I24
s(g32
VCC,NN,NEG
p1126
I0
tp1127
I665
s(g22
V\u0915\u0902\u092a\u0928\u0940,\u0915\u094b
p1128
I0
tp1129
I688
s(g27
V\u091c\u0928\u0924\u093e
p1130
I0
tp1131
I139
s(g19
VNNC,PSP,NN
p1132
I0
tp1133
I78
s(g19
VNNP,CC,VM
p1134
I1
tp1135
I311
s(g22
V\u0915\u0902\u092a\u0928\u0940,\u0915\u0947
p1136
I0
tp1137
I449
s(g46
V\u0905\u0927\u093f\u0915\u093e\u0930\u093f\u092f\u094b\u0902,\u0915\u0947
p1138
I0
tp1139
I453
s(g27
V\u0930\u0902\u0915\u092e
p1140
I0
tp1141
I629
s(g46
V\u0915\u0930,\u0926\u0930\u094d\u091c
p1142
I0
tp1143
I264
s(g19
VCC,VM,PSP
p1144
I0
tp1145
I205
s(g32
VNEG,VM,PSP
p1146
I0
tp1147
I584
s(g27
V\u0905\u0927\u093f\u0915\u093e\u0930\u0940
p1148
I0
tp1149
I297
s(g43
VPSP,NN
p1150
I1
tp1151
I106
s(g19
VNN,PSP,VM
p1152
I0
tp1153
I65
s(g19
VPSP,NNP,PSP
p1154
I0
tp1155
I192
s(g43
VPRP,JJ
p1156
I0
tp1157
I510
s(g19
VVM,NN,QC
p1158
I0
tp1159
I51
s(g27
V\u092e\u0947\u0902
p1160
I0
tp1161
I468
s(g46
V\u0932\u0916\u0940\u0938\u0930\u093e\u092f,\u0915\u0947
p1162
I0
tp1163
I15
s(g46
V\u0915\u094b,\u0936\u0941\u0915\u094d\u0930\u0935\u093e\u0930
p1164
I0
tp1165
I194
s(g46
V\u092a\u0941\u0932\u093f\u0938,\u0915\u093f
p1166
I0
tp1167
I411
s(g46
V\u092c\u0928\u093e,\u0926\u092c\u093e\u0935
p1168
I0
tp1169
I568
s(g22
V\u092a\u0930,\u092f\u0939
p1170
I1
tp1171
I596
s(g46
V\u0915\u0930\u093e,\u092c\u0902\u0926
p1172
I0
tp1173
I700
s(g19
VNNP,NNPC,JJ
p1174
I0
tp1175
I141
s(g22
V\u0936\u0930\u094d\u0924,\u092a\u0930
p1176
I0
tp1177
I593
s(g22
V\u0938\u094d\u0925\u093e\u0928\u0940\u092f,\u092e\u0940\u0921\u093f\u092f\u093e
p1178
I0
tp1179
I515
s(g46
V\u092c\u093f\u0939\u093e\u0930,\u0906\u0930\u094b\u092a
p1180
I0
tp1181
I118
s(g22
V\u0930\u0939\u0940,\u0925\u0940
p1182
I0
tp1183
I492
s(g49
VVAUX,VM
p1184
I0
tp1185
I177
s(g46
V\u092c\u0902\u0926,\u0915\u094b
p1186
I0
tp1187
I696
s(g138
VNN
p1188
I1
tp1189
I86
s(g27
V\u0915\u0939\u093e
p1190
I0
tp1191
I304
s(g43
VPSP,NNC
p1192
I0
tp1193
I74
s(g19
VNN,QC,PSP
p1194
I1
tp1195
I154
s(g19
VVM,JJ,NN
p1196
I0
tp1197
I262
s(g32
VNN,PSP,NNC
p1198
I0
tp1199
I70
s(g32
VNN,PSP,VM
p1200
I0
tp1201
I298
s(g22
V\u0915\u0940,\u091a\u0930\u094d\u091a\u093e
p1202
I0
tp1203
I542
s(g43
VDEM,NN
p1204
I0
tp1205
I532
s(g46
V\u0915\u0940,\u0906\u0930\u094b\u092a\u094b\u0902
p1206
I0
tp1207
I437
s(g22
V\u0907\u0928\u0915\u093e\u0930,\u0915\u0930
p1208
I0
tp1209
I488
s(g46
V\u092a\u091f\u0947\u0932,\u0930\u0902\u091c\u0928
p1210
I0
tp1211
I338
s(g46
V\u092a\u0924\u094d\u0925\u0930,\u092a\u0930
p1212
I0
tp1213
I358
s(g46
V\u0914\u0930,\u0925\u0940
p1214
I0
tp1215
I643
s(g32
VCC,NN,PSP
p1216
I0
tp1217
I211
s(g19
VPSP,NNP,NN
p1218
I0
tp1219
I121
s(g43
VNNC,NNC
p1220
I0
tp1221
I231
s(g138
VVM
p1222
I0
tp1223
I50
s(g22
V\u0915\u093f,\u092a\u0941\u0932\u093f\u0938
p1224
I0
tp1225
I407
s(g32
VCC,NN,VM
p1226
I0
tp1227
I645
s(g22
V\u091c\u092c\u0930\u094d\u0926\u0938\u094d\u0924\u0940,\u0927\u0928
p1228
I0
tp1229
I229
s(g27
V\u092d\u093e\u091c\u092a\u093e
p1230
I1
tp1231
I316
s(g22
V\u0932\u0917\u0947,\u0906\u0930\u094b\u092a\u094b\u0902
p1232
I0
tp1233
I425
s(g22
V\u0905\u0927\u093f\u0915\u093e\u0930\u0940,\u0928\u0947
p1234
I0
tp1235
I295
s(g22
V\u0927\u092e\u0915\u0940,\u0926\u0940
p1236
I0
tp1237
I647
s(g46
V\u0925\u0940,\u0926\u0940
p1238
I0
tp1239
I654
s(g46
V\u0915\u0902\u0938\u094d\u091f\u094d\u0930\u0915\u094d\u0936\u0928,\u0906\u0908\u0921\u0940\u0906\u0908\u0913
p1240
I0
tp1241
I372
s(g22
V\u0915\u0940,\u0936\u0930\u094d\u0924
p1242
I0
tp1243
I591
s(g19
VVM,PSP,PSP
p1244
I0
tp1245
I424
s(g22
V\u0926\u092c\u093e\u0935,\u092c\u0928\u093e
p1246
I0
tp1247
I565
s(g19
VPSP,NN,DEM
p1248
I0
tp1249
I541
s(g43
VCC,CC
p1250
I0
tp1251
I658
s(g32
VPRP,JJ,NN
p1252
I0
tp1253
I513
s(g32
VNN,VM,PSP
p1254
I1
tp1255
I93
s(g27
V\u0938\u094d\u0925\u093e\u0928\u0940\u092f
p1256
I0
tp1257
I518
s(g22
V\u0915\u0930,\u0930\u0939\u0940
p1258
I0
tp1259
I443
s(g19
VNN,NNP,NN
p1260
I1
tp1261
I419
s(g27
V\u091c\u093f\u0932\u0947
p1262
I0
tp1263
I26
s(g46
V\u0930\u0902\u0915\u092e,\u092d\u093e\u0930\u0940
p1264
I0
tp1265
I628
s(g32
VPSP,NNP,NN
p1266
I0
tp1267
I12
s(g19
VNN,NNC,NNP
p1268
I0
tp1269
I325
s(g22
V\u0925\u0940,\u0932\u0947\u0915\u093f\u0928
p1270
I0
tp1271
I494
s(g27
V\u0914\u0930
p1272
I0
tp1273
I644
s(g22
V\u0915\u093f,\u0936\u0941\u0930\u0942\u0906\u0924
p1274
I0
tp1275
I470
s(g27
V\u0936\u0930\u094d\u0924
p1276
I0
tp1277
I595
s(g46
V\u0915\u094b,\u0915\u0902\u092a\u0928\u0940
p1278
I0
tp1279
I693
s(g22
V\u0915\u0947,\u090f\u0915
p1280
I0
tp1281
I148
s(g49
VPSP,NN
p1282
I0
tp1283
I32
s(g19
VNNC,PSP,PSP
p1284
I0
tp1285
I228
s(g19
VNN,JJ,PSP
p1286
I0
tp1287
I390
s(g46
V\u0907\u0938,\u092e\u0947\u0902
p1288
I0
tp1289
I531
s(g43
VNN,PSP
p1290
I1
tp1291
I157
s(g46
V\u092a\u0930,\u0936\u0930\u094d\u0924
p1292
I1
tp1293
I597
s(g22
V\u0930\u0902\u0917\u0926\u093e\u0930\u0940,\u092e\u093e\u0902\u0917\u0928\u0947
p1294
I1
tp1295
I88
s(g22
V\u092f\u0939,\u091c\u093e\u0928\u0915\u093e\u0930\u0940
p1296
I0
tp1297
I600
s(g22
V\u092e\u0947\u0902,\u092a\u0941\u0932\u093f\u0938
p1298
I0
tp1299
I474
s(g19
VJJ,PSP,NN
p1300
I0
tp1301
I623
s(g32
VDEM,NN,VM
p1302
I0
tp1303
I603
s(g32
VPSP,JJ,VM
p1304
I0
tp1305
I694
s(g22
V\u0915\u0947,\u0916\u093f\u0932\u093e\u092b
p1306
I0
tp1307
I218
s(g22
V\u0905\u0927\u093f\u0915\u093e\u0930\u093f\u092f\u094b\u0902,\u0928\u0947
p1308
I0
tp1309
I452
s(g22
V\u0916\u093f\u0932\u093e\u092b,\u0932\u0917\u0947
p1310
I0
tp1311
I422
s(g49
VNNP,NN
p1312
I0
tp1313
I119
s(g32
VVM,CC,NNP
p1314
I0
tp1315
I305
s(g32
VNN,JJ,VM
p1316
I0
tp1317
I254
s(g43
VNEG,VM
p1318
I0
tp1319
I581
s(g46
V\u0932\u093f\u092f\u093e,\u0915\u0930
p1320
I0
tp1321
I270
s(g27
V\u092a\u093e\u0930\u094d\u091f\u0940
p1322
I0
tp1323
I145
s(g19
VNN,PSP,VM
p1324
I1
tp1325
I110
s(g27
V\u0930\u0902\u0917\u0926\u093e\u0930\u0940
p1326
I1
tp1327
I92
s(g19
VVM,NN,NNC
p1328
I1
tp1329
I95
s(g46
V\u0928\u0939\u0940\u0902,\u0927\u0928
p1330
I0
tp1331
I671
s(g22
V\u0915\u0939\u093e,\u0915\u093f
p1332
I0
tp1333
I302
s(g43
VNNP,NN
p1334
I1
tp1335
I416
s(g22
V\u0917\u092f\u093e,\u0939\u0948
p1336
I0
tp1337
I275
s(g32
VPRP,NN,PSP
p1338
I0
tp1339
I686
s(g32
VNN,VM,PSP
p1340
I0
tp1341
I49
s(g22
V\u0936\u0941\u0930\u0942\u0906\u0924,\u092e\u0947\u0902
p1342
I0
tp1343
I471
s(g46
V\u0915\u093e\u091f\u0928\u0947,\u092a\u0924\u094d\u0925\u0930
p1344
I0
tp1345
I53
s(g32
VNNP,PSP,VM
p1346
I0
tp1347
I191
s(g27
V\u0917\u092f\u093e
p1348
I0
tp1349
I278
s(g27
V\u091c\u093e\u0902\u091a
p1350
I0
tp1351
I441
s(g19
VNN,QC,PSP
p1352
I0
tp1353
I43
s(g138
VNNP
p1354
I1
tp1355
I310
s(g43
VNN,VM
p1356
I1
tp1357
I90
s(g19
VPSP,NN,NNC
p1358
I1
tp1359
I245
s(g46
V\u092e\u093e\u0902\u0917\u0928\u0947,\u0930\u0902\u0917\u0926\u093e\u0930\u0940
p1360
I1
tp1361
I97
s(g22
V\u092d\u093e\u0930\u0924\u0940\u092f,\u091c\u0928\u0924\u093e
p1362
I0
tp1363
I127
s(g22
V\u0928\u0947,\u0915\u0902\u092a\u0928\u0940
p1364
I1
tp1365
I617
s(g46
V\u092e\u093e\u0902\u0917,\u0915\u0940
p1366
I1
tp1367
I633
s(g22
V\u0935\u093e\u0932\u0940,\u0915\u0902\u092a\u0928\u0940
p1368
I0
tp1369
I59
s(g32
VNNP,PSP,NNP
p1370
I0
tp1371
I5
s(g22
V\u0915\u0902\u092a\u0928\u0940,\u0938\u0947
p1372
I0
tp1373
I66
s(g46
V\u0935\u093f\u0927\u093e\u092f\u0915,\u0915\u093f
p1374
I1
tp1375
I214
s(g19
VVM,JJ,PSP
p1376
I0
tp1377
I698
s(g22
V\u092a\u0941\u0932\u093f\u0938,\u092a\u0930
p1378
I0
tp1379
I555
s(g19
VPSP,NNP,NN
p1380
I1
tp1381
I352
s(g27
V\u091c\u092c
p1382
I0
tp1383
I512
s(g19
VNN,NNP,PSP
p1384
I0
tp1385
I21
s(g27
V\u092a\u0941\u0932\u093f\u0938
p1386
I0
tp1387
I180
s(g43
VPSP,VM
p1388
I1
tp1389
I164
s(g22
V\u0906\u0908\u090f\u090f\u0928\u090f\u0938,\u0938\u0947
p1390
I0
tp1391
I458
s(g22
V\u0936\u0941\u0915\u094d\u0930\u0935\u093e\u0930,\u0915\u094b
p1392
I0
tp1393
I188
s(g19
VNNP,JJ,NN
p1394
I0
tp1395
I376
s(g46
V\u0928\u0947,\u092a\u091f\u0947\u0932
p1396
I1
tp1397
I618
s(g19
VNNP,PSP,NNP
p1398
I0
tp1399
I13
s(g46
V\u092e\u093e\u092e\u0932\u093e,\u0916\u093f\u0932\u093e\u092b
p1400
I0
tp1401
I347
s(g19
VVM,PSP,NNP
p1402
I0
tp1403
I198
s(g27
V\u0915\u0902\u0938\u094d\u091f\u094d\u0930\u0915\u094d\u0936\u0928
p1404
I0
tp1405
I374
s(g22
V\u0906\u0930\u094b\u092a\u094b\u0902,\u0915\u0940
p1406
I0
tp1407
I431
s(g138
VQC
p1408
I0
tp1409
I35
s(g27
V\u0930\u0902\u091c\u0928
p1410
I0
tp1411
I335
s(g46
V\u0926\u0930\u094d\u091c,\u092e\u093e\u092e\u0932\u093e
p1412
I0
tp1413
I257
s(g46
V\u0939\u0948,\u0917\u092f\u093e
p1414
I0
tp1415
I280
s(g27
V\u092c\u093e\u0924\u091a\u0940\u0924
p1416
I0
tp1417
I465
s(g22
V\u0915\u0902\u0938\u094d\u091f\u094d\u0930\u0915\u094d\u0936\u0928,\u0932\u093f\u092e\u093f\u091f\u0947\u0921
p1418
I0
tp1419
I371
s(g49
VJJ,QC
p1420
I0
tp1421
I287
s(g49
VNN,PSP
p1422
I1
tp1423
I114
s(g32
VNN,PSP,DEM
p1424
I0
tp1425
I523
s(g22
V\u0906\u0908\u0921\u0940\u0906\u0908\u0913,\u0915\u0902\u0938\u094d\u091f\u094d\u0930\u0915\u094d\u0936\u0928
p1426
I0
tp1427
I365
s(g19
VVM,NN,CC
p1428
I0
tp1429
I650
s(g22
V\u0930\u0902\u0915\u092e,\u0915\u0940
p1430
I0
tp1431
I627
s(g19
VCC,VAUX,VAUX
p1432
I0
tp1433
I499
ssbsS'_weights'
p1434
cnumpy.core.multiarray
_reconstruct
p1435
(cnumpy
ndarray
p1436
(I0
tp1437
S'b'
p1438
tp1439
Rp1440
(I1
(I704
tp1441
cnumpy
dtype
p1442
(S'f8'
p1443
I0
I1
tp1444
Rp1445
(I3
S'<'
p1446
NNNI-1
I-1
I0
tp1447
bI00
S'w\xbc`Z\xd4\xad\xd3?V\x11\xdfM\xba\x8a\xd1?\xfal\xe6\xc2\x10\xd1\xe2?\xce\xc2\x13q\xce|\xe0?\xfal\xe6\xc2\x10\xd1\xe2? \xc0^\x0e\xa4\xc7\xe9?\xe2\x04c\xcf\x90w\xb9?j&\x94\xb4xJ\xf3?\n~|R\x8d\xb1\xed?\x8a\xf1\xb0M\xaf\xd2\xf6\xbf\xb1\xe1\xdc\x12\xa3\x12\xc6?+mSh)G\xe8?j&\x94\xb4xJ\xf3?\xdbo\t\x0cTW\xed?\xdbo\t\x0cTW\xed?\xdbo\t\x0cTW\xed?\xb0z\\h,\xc0\xe4\xbf\x04\xe6b\xf6\x84v\xe2?\xdbo\t\x0cTW\xed?\xb0z\\h,\xc0\xe4\xbf\x01k\x8c\xcc*\xb0\xcb?p\xfd\xf8o\x7f\xd4\xe2?p\xfd\xf8o\x7f\xd4\xe2?p\xfd\xf8o\x7f\xd4\xe2?\x9c\x7f\x13 \xb6\xff\xc9?\xb7\t\x1b\x9f\xaa\xe5\xe8\xbfp\xfd\xf8o\x7f\xd4\xe2?p\xfd\xf8o\x7f\xd4\xe2?\xf1U\xa7\x0c\x12\xec\xe5?\xd2\xbd7\xa9\x15*\xe6?\xd2\xbd7\xa9\x15*\xe6?\xb3p\xcd\x91d_\xe3?\xd7\xc0\x80 \xe4\xd6\xbd\xbfA3\xc1\x94\x1b\xbb\xe9?\xb3p\xcd\x91d_\xe3?l0y\xff\xc9\xbd\xe4?&*\xc0\xdb[x\xe1?&*\xc0\xdb[x\xe1?&*\xc0\xdb[x\xe1?&*\xc0\xdb[x\xe1?&*\xc0\xdb[x\xe1?l0y\xff\xc9\xbd\xe4?&*\xc0\xdb[x\xe1?I\x83\xbd\x9d\x91\x03\xe3\xbf\xea\xe3\xd2j I\xf0?\xe7\x94R\x0c\x07N\xf9?\x07\x07;\xb0 p\x86?I\x83\xbd\x9d\x91\x03\xe3\xbf\xea\xe3\xd2j I\xf0?\xd5\x16.\xa0\xd4\xab\xa4?\xef.b\xf1\x19\xa1\xc9?#\x87\xce\x8f=,\xd7?\x83\xd3\'@\xf2T\xd7?\x83\xd3\'@\xf2T\xd7?o6~;\xad\x88\xa4\xbf\xb8\x86\x91G\xa6R\xb1?\x83\xd3\'@\xf2T\xd7?o6~;\xad\x88\xa4\xbf\xbd^0e[\x15\xb3\xbf\xc2\xbd\x0f\xafR\xf9\xeb?\xc2\xbd\x0f\xafR\xf9\xeb?_\x88JN\xb0b\xc3\xbfq\x18\\R\xcf-\x9b?\xc2\xbd\x0f\xafR\xf9\xeb?l\x9b8\xbe"S\xd1?\r\x99p{W`\xa1?\xb5}\x8e\xba5\x9b\xd5?\x18%\xa5\xf6\x13J\xda?\xf2\x97\x02Y\xb2V\xc1?\x80`\x98\xaa\xe7\xdd\xdd?\x0b}\xe5`\xa0U\xd7?\xf0z,\xb7\xa5\xf0\xce\xbf\xbc\x1b\x9d\xd7I\x88\xec?q,\xd2\xe2\r\xc5\xec?&\xa4_)\x1d\x7f\xe5?\x05\x80Zb\xc3%\xea?\xce\x88c\x86\x11>\xe8?\x85\xd9\x94\xdc\x03\xb2\xc8?H*B\xa0\xec\xfe\xdd?6\xdd\'\xa1\xe8\xf4\xdd?6\xdd\'\xa1\xe8\xf4\xdd?\x12\x0f\x05w\xc2\x0f\xbe?_\xc0\x99\xc9\x1a\x82\xde?\xca\xee\x1a\x8e\xf4\xbe\xde?6\xdd\'\xa1\xe8\xf4\xdd?b\xaa\x16\xb8y\x00\x02\xc0xG\x98\xe5\xb6>\xf3\xbf[\x1cI\xa9\xe9>\xf4?\x9a\xb6\x96<\x1et\x01@\x9a\xb6\x96<\x1et\x01@\x12-\xd2s\xa3\xf2\xb1?x\xa4T\x8c!\x8f\xa8\xbf\x9a\xb6\x96<\x1et\x01@\xd5\xad\x1a\xc2\xe8:\x8d\xbfw09z\xb1\xb7\x10\xc0\xc8kA;\xff?\x05@\xc8kA;\xff?\x05@\xc8kA;\xff?\x05@D\x83X\x1f\xad\xa6\xe3?\x9f c\xd2\xc5\xd1\xc5\xbf\xc8kA;\xff?\x05@D\x83X\x1f\xad\xa6\xe3?\xf7\xe8\x9d\xdc\x17\x18\xc9\xbf\xa5y\r\x8b\xc01\xc9?%\xbc\xd8\xba\x8d4\xfe?\xdd\xe0\x06!\x12\xa3\x00@\xdf\xd5F\rx\xba\xd2?\x97\x13+$\x1e4\x94\xbfD>\xd4\xb6\xde0\xfd?\xe4(3?\x84\xa8\xe4?[(\x87s6U\xa1?\xb0\x93\xe35Ab\x07@F\xf3|\xc6\xd4p\x05@\xd1\x7f\xc4\xb7\xce\xbe\xba\xbfuN2\xb8]\xa9\xe4\xbfF\xf3|\xc6\xd4p\x05@B|\x1a\xd0f\x8a\xe5?\xce\xa6)\x10\x8cW\xdd?0S\x1c\xc4\xe0\xb2\xdc?\x19?\xbb5j}\xa8\xbf\x8c\xa7\xd7\x0f\xe9\xff\xdb?\xebPt\xe0\xe1\xf6\xd2\xbfQ\xc3\xfaZ\x90\xfd\xe5?\xb2\x9d\x1bN\xda\xfc\xe5?Q\xc3\xfaZ\x90\xfd\xe5?i\x9f\x0cT\x001\xe2?=\xe7q\xd0\x9d\xf8\xe1?=\xe7q\xd0\x9d\xf8\xe1?=\xe7q\xd0\x9d\xf8\xe1?=\xe7q\xd0\x9d\xf8\xe1??\xe7q\xd0\x9d\xf8\xe1?=\xe7q\xd0\x9d\xf8\xe1?=\xe7q\xd0\x9d\xf8\xe1?\xc6\xc9p}\xb3\x03\xe2?\xe9\xc7\x84Zb\xfb\xe1?\xe9\xc7\x84Zb\xfb\xe1?\xe9\xc7\x84Zb\xfb\xe1?\xc6\xc9p}\xb3\x03\xe2?\xe9\xc7\x84Zb\xfb\xe1?\xe9\xc7\x84Zb\xfb\xe1?\xc6\xc9p}\xb3\x03\xe2?\x9e\x13o\xfc\xdeU\xdb?\x9e\x13o\xfc\xdeU\xdb?\x9e\x13o\xfc\xdeU\xdb?\xce\xc4\xb9\xc09\xf0\xda?\x9e\x13o\xfc\xdeU\xdb?\x9e\x13o\xfc\xdeU\xdb?\x98\x17\xebV\x06(\xe0?\xd42w\xf2}\x9c\xe0?\xd42w\xf2}\x9c\xe0?&*\xc0\xdb[x\xe1?&*\xc0\xdb[x\xe1?&*\xc0\xdb[x\xe1?&*\xc0\xdb[x\xe1?\x08?I>\x03\\\xe7??\x16\xffZ\xd0\xa7\x03@?\x16\xffZ\xd0\xa7\x03@\xda\xf7:x\xa9i\xf5\xbf\x08?I>\x03\\\xe7?\x9d\x04\x9aK\xd5\xb2\x00@"x8\xd3\x11\x90\xda?\xd27S[.\x1b\xf5?\xd27S[.\x1b\xf5?\xd27S[.\x1b\xf5?0\x89\x81R\x17\x9a\xe0?\x85/I\x9a\xd5\x16\xc8?u$f\x97\x10\x83\xfd?\xd27S[.\x1b\xf5?\x9d\xa8l\x9d\x9a\x07\xd1?\xe3\x04\xa5\x1b\xc2\x9f\xd2?u\xd2wQRi\xd3?(L\xf9\xf6`w\xd0?\xd8\xa9\x92Ha\xe2\xd0?\xe3\x04\xa5\x1b\xc2\x9f\xd2?$H\xd1\xb8.\xca\xe5?>P\x19\x97>f\xee?\x94\x013\x16\xe2\x01\xf0?\x82%\x0e\x18A\xc1\xe4?Fa\xb4\xb1\xcd=\xef?\xfd2\xc0\xb6\x7f\xae\xe6?\xb6\x05f\x86\xa6\xd8\xe3?6\\_\xa8\xb1\xf1\xde?\xe25\x18\xf5W\xd8\xf7?\xe25\x18\xf5W\xd8\xf7?L\xb4\t\x85\x88\xed\xe7?Xd\xa2\xee\xd1/\xfb?\tg\xcd\x06}@\xf5?\x9c\xf9\'r\xa1P\xda?\xbb\xa3`\x94\xd5\xbb\xda?\xbb\xa3`\x94\xd5\xbb\xda?\xbb\xa3`\x94\xd5\xbb\xda?\xbb\xa3`\x94\xd5\xbb\xda?\xd2\x8b4%{\x81\xea?\x10zy\x9c\xbf\xc0\xf2?\x10zy\x9c\xbf\xc0\xf2?\xe4a\xc8\x12\xf9\xe7\xe3\xbf \xa2\xd2\xa8\x7f=\xed?,\xcd\x8f\x9cB/\xe6\xbf\xe7h~\xc4\xe0\x8b\xd0?\xd9\xacC_\r\x88\xd0?\xe7h~\xc4\xe0\x8b\xd0?\x08\x8d78\xcaQ\xd0?\xd9\xacC_\r\x88\xd0?\x05\x19\xf1N\r;\xd0?n\xe32ZL\xfd\xe1?m\xe32ZL\xfd\xe1?o\xe32ZL\xfd\xe1?p\xe32ZL\xfd\xe1?r\xe32ZL\xfd\xe1?n\xe32ZL\xfd\xe1?p\xe32ZL\xfd\xe1?o\xe32ZL\xfd\xe1?[\x95;>\xd8N\xee?\xf3\xe3\x03[\xeac\x01@\xb2\xef\xca\x927\xf6\x06@\xabB:9\xd8$\xdb\xbf\xf3\xe3\x03[\xeac\x01@\xf9\r}\xf1\x82\x85\xb8?\xcf\xee\xcb\t\xdb\x82\xe5?Z\xbc\x851x\r\xe7?\xcf\xee\xcb\t\xdb\x82\xe5?.a\xe02=n\xe8?}\xef\x0b\x1aS\x84\xe4?Z^\xdf\xa8h\x12\xe0?I6\xa1\x06M\xba\xea?I6\xa1\x06M\xba\xea?I6\xa1\x06M\xba\xea?Z^\xdf\xa8h\x12\xe0?4\x00\x95\x89\xb0\x8a\xdf?4\x00\x95\x89\xb0\x8a\xdf?4\x00\x95\x89\xb0\x8a\xdf?4\x00\x95\x89\xb0\x8a\xdf?4\x00\x95\x89\xb0\x8a\xdf?=D\x1c$M\x19\xde?x\x99\xce\xe4\x1e\x11\xde?=D\x1c$M\x19\xde?=D\x1c$M\x19\xde?\xa9\x99\xeb0\xe9"\xde?4x\x1ft\x14\xd7\xdd?c{r \xd9\xe1\xd6?\x07\x97\x92\xf1\xd7\x06\xe3?\x07\x97\x92\xf1\xd7\x06\xe3?*\xf4\x14\xfbH[\xa3?\x07\x97\x92\xf1\xd7\x06\xe3?\xc81\xed\xad\xcd\xde\xe0?XG\x1d\x94\x07\x89\xf7?\xa4%\\\x9d\x1c\xd4\xf7?\xbcQ\xb0_\xa0\x82\xf9?\x1e{\xf9\x86/\x9c\xe5?{\xc7\x8a\xf1.\xda\x96?C\xaf\x0e\xaf\xd3\xe3\xdd?\xe2\xa2\xe2\xd7/v\xdf?9\xfaeW\x0f\x1e\xde?C\xaf\x0e\xaf\xd3\xe3\xdd?C\xaf\x0e\xaf\xd3\xe3\xdd?;\xe7q\xd0\x9d\xf8\xe1?=\xe7q\xd0\x9d\xf8\xe1?;\xe7q\xd0\x9d\xf8\xe1??\xe7q\xd0\x9d\xf8\xe1??\xe7q\xd0\x9d\xf8\xe1?;\xe7q\xd0\x9d\xf8\xe1?;\xe7q\xd0\x9d\xf8\xe1?\xe0\xd0\xd5u"\\\xd4?\xec\xdd\xb3\xd4\x83f\xd0?\xec\xdd\xb3\xd4\x83f\xd0?\x1c|\xb1|\xd2\x1c\xd4?\x9e\r-Y\x1e\xb8\xcf?\x9e\r-Y\x1e\xb8\xcf?\xb2\x03e\xd9f\xc7\xe4?Y\x80k\xf2\xd0\xe4\xe0?Y\x80k\xf2\xd0\xe4\xe0?J\xc4\r\xcf\xec\x83\xe2?Y\x80k\xf2\xd0\xe4\xe0?Y\x80k\xf2\xd0\xe4\xe0?F\xca\xb4f\x07`\xe5?2\x9b\x03N\xae"\xe4?2\x9b\x03N\xae"\xe4?X\x92R\x03[\xbc\xe7?"\x07\x1c\n\x9e\x15\xe3?\x8a/\xc7:{\x01\xee?\x8a/\xc7:{\x01\xee?\x9ay\xd4\x9f\x1c\xe6\xee?\x9ay\xd4\x9f\x1c\xe6\xee?\x9ay\xd4\x9f\x1c\xe6\xee?\x9d\x11\r:4\xb2\xe4?\x9d\x11\r:4\xb2\xe4?\x9d\x11\r:4\xb2\xe4?\x9d\x11\r:4\xb2\xe4?\x9d\x11\r:4\xb2\xe4?\x9d\x11\r:4\xb2\xe4?\xea\x1b\xae3\nc\xdd?\xea\x1b\xae3\nc\xdd?\xea\x1b\xae3\nc\xdd?\xea\x1b\xae3\nc\xdd?w\xd0S;\xcc\xd1\xdb?\xa3f.\x96=Z\xe4?w\xd0S;\xcc\xd1\xdb?\xa3f.\x96=Z\xe4?\x02z\x98\x0e\xd03\xaf\xbf\xb9\x1c\x9d\x0c\x01\xde\xf6?p\xfc(57\xf8\xf8?9\xa8\x05\xbb[\xa2\xe0?\xe5f\x92\x880\x81\xd0?\xad\xc2\xae;f\x7f\xd0?\xe5f\x92\x880\x81\xd0?\xad\xc2\xae;f\x7f\xd0?q\xe32ZL\xfd\xe1?o\xe32ZL\xfd\xe1?q\xe32ZL\xfd\xe1?q\xe32ZL\xfd\xe1?\x19\xa8i\xed\x8e\x0b\xfb\xbf"\xea\xb6\x1e\xa9L\xe2?49\xaf\x89\x15\x0e\xfa?j\xf3B<4D\xf8?j\xf3B<4D\xf8?"\xea\xb6\x1e\xa9L\xe2?49\xaf\x89\x15\x0e\xfa?j\xf3B<4D\xf8?\x06,`\xf0\xa0\t\xf1\xbf\x0f\x87\x81sc.\xf9?\x0f\x87\x81sc.\xf9?\xb2\x9a*\x85\xc8\xda\xf8?\xa3\x83\xd7\xd9\xce\xea\xde\xbf\x0f\x87\x81sc.\xf9?\x0f\x87\x81sc.\xf9?\xb0aA\xd9\x9d \xdc?\x8bZuht\x80\xef?\xb0aA\xd9\x9d \xdc?\xb0aA\xd9\x9d \xdc?\x8bZuht\x80\xef?\xb0aA\xd9\x9d \xdc?R\x90n\x85\x05\x0c\xe2?R\x90n\x85\x05\x0c\xe2?0\x19U}\t\xe4\xe1?R\x90n\x85\x05\x0c\xe2?0\x19U}\t\xe4\xe1?h\xe5\xef\xcf\x9f\x8a\xda?!8\xcfj\xc5B\xdc?h\xe5\xef\xcf\x9f\x8a\xda?\xb0\x9fsX\xc3\xf7\xe2?!8\xcfj\xc5B\xdc?\xdb}h\x92\xea\xfc\xe3?\xdb}h\x92\xea\xfc\xe3?\xb7A\x0f\x84\x8f\x85\xf0?\xb7A\x0f\x84\x8f\x85\xf0?\xb9ix\x025\xe7\xe2\xbf\xdf\xa0E,\xabR\xdc?\xdf\xa0E,\xabR\xdc?,\xb0\x8f\xbd\x909\xb4?1v4\xda\xe4v\xd2\xbf\xf7C\xa2\xa9\x1b\xbc\xe1?OE\xad3S\xdb\xe3?\x90j\xa2\x96\xb0\x0e\xe7?\x0cN\xc3\xc9\xa7\x8a\x02@\x0cN\xc3\xc9\xa7\x8a\x02@\x8eg{\x7f\nl\xe6\xbf\xcb\xd0\xcex\xb5\xa3\xd3?\xa8eI\xea3\xd1\xd9?\xbem\x9d6\xae\xdc\xde?q[\xd2+\x07\xca\xd1?-.$4\xbfW\xef?O\xcf(h\xed\xaa\xde?O\xcf(h\xed\xaa\xde?O\xcf(h\xed\xaa\xde?\xacW\xd3\xf7\x13\x0b\xdf?\xacW\xd3\xf7\x13\x0b\xdf?\xacW\xd3\xf7\x13\x0b\xdf?\xacW\xd3\xf7\x13\x0b\xdf?\xacW\xd3\xf7\x13\x0b\xdf?\xacW\xd3\xf7\x13\x0b\xdf?=\xe7q\xd0\x9d\xf8\xe1?=\xe7q\xd0\x9d\xf8\xe1?=\xe7q\xd0\x9d\xf8\xe1?=\xe7q\xd0\x9d\xf8\xe1?=\xe7q\xd0\x9d\xf8\xe1?=\xe7q\xd0\x9d\xf8\xe1?\xa0W\x13\xd7\xd1M\xdb?\xa0W\x13\xd7\xd1M\xdb?\xa0W\x13\xd7\xd1M\xdb?\xa0W\x13\xd7\xd1M\xdb?\xa0W\x13\xd7\xd1M\xdb?~jf\x97\xee\xe4\xdf?~jf\x97\xee\xe4\xdf?~jf\x97\xee\xe4\xdf?\xa1\xe4%:#h\xe6?=\xe7q\xd0\x9d\xf8\xe1?=\xe7q\xd0\x9d\xf8\xe1?=\xe7q\xd0\x9d\xf8\xe1?=\xe7q\xd0\x9d\xf8\xe1?=\xe7q\xd0\x9d\xf8\xe1?-b\xb1\xfaxb\xd8?\xa0{bi\xeb\xbc\xd8?\xa0{bi\xeb\xbc\xd8?\xd4r\xd3p.}\xd8?\xa0{bi\xeb\xbc\xd8?\x89\x1e\xda\xb9\r/\xef?\x80wm\xd3\xfe\x00\xe4?\x80wm\xd3\xfe\x00\xe4?\xc7\x8e\t\xc4\xf0\x08\xde?\x0e;\x13KQ\x84\xf0\xbf\xa8\xfd\x0e\xf9WP\xb0?^\x15Dg\xa3\x8a\x03@\xa5\xc8\x9b\xdd\xa5\x80\xf0?{\x94\xb4e=\xd8\xd1?\n\x9fz\xa3\xc9%\xe4?\xd7m\xa1\xd2\x12\x1d\xff?.\x92\xd3\x00:\x84\xd0?o\xe32ZL\xfd\xe1?o\xe32ZL\xfd\xe1?P,In\xf4=\xce\xbf\xa5\xec\xc1\xb8\x0e\xfe\xe6?\xa5\xec\xc1\xb8\x0e\xfe\xe6?\xe2\xd6=\x1e\xc1\xaa\xbc?\xa5\xec\xc1\xb8\x0e\xfe\xe6?\xf3\xff\x7f!\xc7\xe7\xfb?\xf3\xff\x7f!\xc7\xe7\xfb?q\x9f\xe6\xa6\xdd\x92\xe8?\x06\x9d\xefy\xb7\x99\xc7?q\x9f\xe6\xa6\xdd\x92\xe8?Y\xff\x91\x16\xd1\x89\xf8?L\xae\xab\xe7\xea\xcd\xec?\xa5\x8e2k\x16\xae\xe5??\x01\xf1\x98\x04\x06\xe9??\x01\xf1\x98\x04\x06\xe9?\x14S\xc9\x94L\x83\xd0?\x14S\xc9\x94L\x83\xd0?\x14S\xc9\x94L\x83\xd0?\x14S\xc9\x94L\x83\xd0?\x14S\xc9\x94L\x83\xd0?\x14S\xc9\x94L\x83\xd0?\xf1\x7f\x0c\x91\xca\x11\xd8?\xf1\x7f\x0c\x91\xca\x11\xd8?\xf1\x7f\x0c\x91\xca\x11\xd8?\xf1\x7f\x0c\x91\xca\x11\xd8?\xf1\x7f\x0c\x91\xca\x11\xd8?\x9fRX=\x14r\xf1?\x9fRX=\x14r\xf1?\x9fRX=\x14r\xf1?\x83\xaf\xe2;\x1c\xf4\xc8\xbf\x7f\xc5\xae\xbe\xcf\xc6\xec?\x7f\xc5\xae\xbe\xcf\xc6\xec?\x7f\xc5\xae\xbe\xcf\xc6\xec?u?v\x90\xb8\xad\xe1\xbf\xe7T;\xc2\x82\xa6\xce?\xe7T;\xc2\x82\xa6\xce?\xd2\xca!\xe3\xad3\xe5?q\xba3\x84\xae\xb9\xe2?q\xba3\x84\xae\xb9\xe2?\x10@u\x83\xd8\x15\xf0?Yin\xd8\x881\xe7?e\xd9\xb6\te5\xed?e\xd9\xb6\te5\xed?Op\xa3[\xbd\xab\xde?\xc5\xf9\xbc\xba\xac\\\xd8?Op\xa3[\xbd\xab\xde?y<\xfd\xaa\x92\x93\xd1?\x15\xf6,\xf6\x01\xfd\xf2?u[bEvL\xf9?\xc2\xb3\xe2\xc4y\xe5\xd9?\xc2\xb3\xe2\xc4y\xe5\xd9?\xc2\xb3\xe2\xc4y\xe5\xd9?\xdd\x8f\xd2\x8f\xcf\xb5\xdf?\xdd\x8f\xd2\x8f\xcf\xb5\xdf?\xdb<\xbcZ\xfdf\xd9?\xdb<\xbcZ\xfdf\xd9?\xdb<\xbcZ\xfdf\xd9?^\x06\xba\x89\xb5a\xfd?^\x06\xba\x89\xb5a\xfd?\xf6\x8b\x81\xe2\xaf4\xf7?\x83\xbb\xd9&\xc5\x84\xd0?r\xe32ZL\xfd\xe1?\xa2\xbe\x12\x83\x98\xa5\xdf?\xa2\xbe\x12\x83\x98\xa5\xdf?\xa2\xbe\x12\x83\x98\xa5\xdf?s\xebk\x06`S\xf5?s\xebk\x06`S\xf5?p\xb7\x03FM_\xe2\xbf>\xc2p\xddI\xc0\xe8?>\xc2p\xddI\xc0\xe8?\x9b\xae\xf2\xcc`\xfc\xdd?;\xe7q\xd0\x9d\xf8\xe1?;\xe7q\xd0\x9d\xf8\xe1?l3p5{X\xd8?l3p5{X\xd8?l3p5{X\xd8?r\x95=#\x1a\x98\xd8\xbf\xd8\xa1i\xe0\xfaS\xf8?\xd8\xa1i\xe0\xfaS\xf8?\x040\xfe3\x19\x19\xec?\x040\xfe3\x19\x19\xec?\x040\xfe3\x19\x19\xec?\xe7T;\xc2\x82\xa6\xce?c\x8f\xe0\x94=\x8c\xe0?c\x8f\xe0\x94=\x8c\xe0?}\xe7D=\x00\x9b\xe0?}\xe7D=\x00\x9b\xe0?\xefS\t\xd4\x07\x07\xe1?\xf0B\xa6\x7f\x19\xf5\xe0?\x1d]\xe7\xc9\xe2\xeb\xe0?q\xe32ZL\xfd\xe1?q\xe32ZL\xfd\xe1?q\xe32ZL\xfd\xe1?q\xe32ZL\xfd\xe1?s\xe32ZL\xfd\xe1?q\xe32ZL\xfd\xe1?q\xe32ZL\xfd\xe1?r\xe32ZL\xfd\xe1?r\xe32ZL\xfd\xe1?r\xe32ZL\xfd\xe1?r\xe32ZL\xfd\xe1?r\xe32ZL\xfd\xe1?r\xe32ZL\xfd\xe1?r\xe32ZL\xfd\xe1?r\xe32ZL\xfd\xe1?=\xe7q\xd0\x9d\xf8\xe1?=\xe7q\xd0\x9d\xf8\xe1?=\xe7q\xd0\x9d\xf8\xe1?=\xe7q\xd0\x9d\xf8\xe1?=\xe7q\xd0\x9d\xf8\xe1?\xfb\x04\xef\xec\x9b\xb2\xd8?\xfb\x04\xef\xec\x9b\xb2\xd8?\xfb\x04\xef\xec\x9b\xb2\xd8?\xfb\x04\xef\xec\x9b\xb2\xd8?\xbb\xb1L\xce&\xc0\xd7?\xd9\xf6I\xacQ\x1b\xf3?\xd9\xf6I\xacQ\x1b\xf3?\xee\xf6\xe5\x97\xa8\xa9\xdb\xbf\xee\xf6\xe5\x97\xa8\xa9\xdb\xbfr\xe32ZL\xfd\xe1?r\xe32ZL\xfd\xe1?r\xe32ZL\xfd\xe1?r\xe32ZL\xfd\xe1?r\xe32ZL\xfd\xe1?r\xe32ZL\xfd\xe1?r\xe32ZL\xfd\xe1?r\xe32ZL\xfd\xe1?N/\xc3\xa0\xcb\xf1\xdf?\xf9d\xb9\xe12\xfc\xd6?\xf9d\xb9\xe12\xfc\xd6?N/\xc3\xa0\xcb\xf1\xdf?\xf9d\xb9\xe12\xfc\xd6?\x9fRX=\x14r\xf1?\x9fRX=\x14r\xf1?\x9fRX=\x14r\xf1?\x05\x80\xb7o\x00\xa3\xe1?\x05\x80\xb7o\x00\xa3\xe1?\x05\x80\xb7o\x00\xa3\xe1?\x05\x80\xb7o\x00\xa3\xe1?]}\x12\xc6\x8a\xb3\xce?]}\x12\xc6\x8a\xb3\xce?]}\x12\xc6\x8a\xb3\xce?r\xe32ZL\xfd\xe1?r\xe32ZL\xfd\xe1?r\xe32ZL\xfd\xe1?r\xe32ZL\xfd\xe1?q\x13"\x98\x9c\xa8\xde?q\x13"\x98\x9c\xa8\xde?;d\xa5z\xd26\xc6\xbf~Kd\x01\xacX\x00@~Kd\x01\xacX\x00@\xe2\xa2\xe2\xd7/v\xdf?l3p5{X\xd8?\xf4\xb0\x85ac\xfa\xdb?C\x91)\xcd\x99R\x00@C\x91)\xcd\x99R\x00@T\x0b\x08\xbaK\xd9\xe4?T\x0b\x08\xbaK\xd9\xe4?T\x0b\x08\xbaK\xd9\xe4?\xb6\x15\xd2\xc6\x80+\xda?\xb6\x15\xd2\xc6\x80+\xda?L\xf4Q(@\xd0\xff?L\xf4Q(@\xd0\xff?^\x81\x1e^&%\xdf?^\x81\x1e^&%\xdf?\xc9\xb4\xa04\xae\xb5\xde?^\x81\x1e^&%\xdf?\xc9\xb4\xa04\xae\xb5\xde?r\xe32ZL\xfd\xe1?r\xe32ZL\xfd\xe1?r\xe32ZL\xfd\xe1?r\xe32ZL\xfd\xe1?r\xe32ZL\xfd\xe1?r\xe32ZL\xfd\xe1?r\xe32ZL\xfd\xe1?r\xe32ZL\xfd\xe1?\x17a\xaa\xb0o[\xd4?p)\xbd\x94\x84Y\xd8?p)\xbd\x94\x84Y\xd8?\x17a\xaa\xb0o[\xd4?p)\xbd\x94\x84Y\xd8?K\x98\xe68\xc1\xee\xe4?K\x98\xe68\xc1\xee\xe4?K\x98\xe68\xc1\xee\xe4?3\xd7R_\x9b\xd0\xd6?3\xd7R_\x9b\xd0\xd6?3\xd7R_\x9b\xd0\xd6?}\x91\x1f}\x01\xcd\xfb?}\x91\x1f}\x01\xcd\xfb?\xa7J\x17, \x00\xdf?\xa7J\x17, \x00\xdf?r\xe32ZL\xfd\xe1?r\xe32ZL\xfd\xe1?r\xe32ZL\xfd\xe1?r\xe32ZL\xfd\xe1?\x90\x820\xfa\xd6\x19\xe5?\x90\x820\xfa\xd6\x19\xe5?\x90\x820\xfa\xd6\x19\xe5?s\twQ\xe0\xf8\xd9?s\twQ\xe0\xf8\xd9?\xbbS\xe02dn\xd3?q\xe32ZL\xfd\xe1?q\xe32ZL\xfd\xe1?\x97p\xb8\x8a\xdeF\xe0\xbf\x0e\xa4\xe0)+\xdb\xec?\x0e\xa4\xe0)+\xdb\xec?\x97p\xb8\x8a\xdeF\xe0\xbfas<\xd4\xcah\x04@as<\xd4\xcah\x04@as<\xd4\xcah\x04@\x8co4fi5\xf3\xbf\xf1\xbe\xd9g/E\xd5?l\x10|zc\xce\xd6?._\xed\xa2\xdd\x01\xed?;\xe7q\xd0\x9d\xf8\xe1?=\xe7q\xd0\x9d\xf8\xe1?=\xe7q\xd0\x9d\xf8\xe1?=\xe7q\xd0\x9d\xf8\xe1?\xe0\xce\xd0\r\x10\x08\xd8?\xe0\xce\xd0\r\x10\x08\xd8?\xe0\xce\xd0\r\x10\x08\xd8?l4\t\x16T\xcf\xf1?l4\t\x16T\xcf\xf1?\xd6?6\xee\xfdo\x04@\xd6?6\xee\xfdo\x04@\xd6?6\xee\xfdo\x04@\x01\xa0\xf0UtB\xcc?\x01\xa0\xf0UtB\xcc?\xe7\xe9j\xfc\xe0\x86\xce?\x94\xa0\xbeM/"\xe1?\x94\xa0\xbeM/"\xe1?\x94\xa0\xbeM/"\xe1?q\xe32ZL\xfd\xe1?q\xe32ZL\xfd\xe1?q\xe32ZL\xfd\xe1?q\xe32ZL\xfd\xe1?q\xe32ZL\xfd\xe1?\xd26DH-\x05\xea?\xd26DH-\x05\xea?\xd26DH-\x05\xea?\xd26DH-\x05\xea?\'\xd0\x15I\xdb\x8e\xce?\'\xd0\x15I\xdb\x8e\xce?\'\xd0\x15I\xdb\x8e\xce?\x94\xa0\xbeM/"\xe1?\x94\xa0\xbeM/"\xe1?\x94\xa0\xbeM/"\xe1?r\xe32ZL\xfd\xe1?r\xe32ZL\xfd\xe1?r\xe32ZL\xfd\xe1?r\xe32ZL\xfd\xe1?q\xe32ZL\xfd\xe1?q\xe32ZL\xfd\xe1?q\xe32ZL\xfd\xe1?q\xe32ZL\xfd\xe1?q\xe32ZL\xfd\xe1?q\xe32ZL\xfd\xe1?\x16\xb0\x9dj\xf4F\xde?\x16\xb0\x9dj\xf4F\xde?\x16\xb0\x9dj\xf4F\xde?r\xe32ZL\xfd\xe1?r\xe32ZL\xfd\xe1?r\xe32ZL\xfd\xe1?r\xe32ZL\xfd\xe1?\xecQO\xc2\x1ed\xd0?\xecQO\xc2\x1ed\xd0?\xecQO\xc2\x1ed\xd0?\xe2\x13P\xf0\xd7<\xe1?\xe2\x13P\xf0\xd7<\xe1?\xe2\x13P\xf0\xd7<\xe1?o\xe32ZL\xfd\xe1?o\xe32ZL\xfd\xe1?o\xe32ZL\xfd\xe1?r\xe32ZL\xfd\xe1?r\xe32ZL\xfd\xe1?r\xe32ZL\xfd\xe1?r\xe32ZL\xfd\xe1?r\xe32ZL\xfd\xe1?\xb9CjlCY\xd8?\xb9CjlCY\xd8?\xb9CjlCY\xd8?\xb9CjlCY\xd8?\x8c\x10H\xb2\xb5(\xe5?\x8c\x10H\xb2\xb5(\xe5?\x8c\x10H\xb2\xb5(\xe5?\x8c\x10H\xb2\xb5(\xe5?9\xe7q\xd0\x9d\xf8\xe1?9\xe7q\xd0\x9d\xf8\xe1?9\xe7q\xd0\x9d\xf8\xe1?\x04\x01\xae\x82h\t\xd3?\x04\x01\xae\x82h\t\xd3?\x04\x01\xae\x82h\t\xd3?\x04\x01\xae\x82h\t\xd3?\xe6\xab\x8e\xc5Ik\xf0?\xe6\xab\x8e\xc5Ik\xf0?'
p1448
tp1449
bsb.